Component: ARM Compiler 5.06 update 5 (build 528) Tool: armlink [4d35e2]

==============================================================================

Section Cross References

    startup_stm32f10x_md.o(STACK) refers (Special) to heapauxi.o(.text) for __use_two_region_memory
    startup_stm32f10x_md.o(HEAP) refers (Special) to heapauxi.o(.text) for __use_two_region_memory
    startup_stm32f10x_md.o(RESET) refers (Special) to heapauxi.o(.text) for __use_two_region_memory
    startup_stm32f10x_md.o(RESET) refers to startup_stm32f10x_md.o(STACK) for __initial_sp
    startup_stm32f10x_md.o(RESET) refers to startup_stm32f10x_md.o(.text) for Reset_Handler
    startup_stm32f10x_md.o(RESET) refers to stm32f10x_it.o(i.NMI_Handler) for NMI_Handler
    startup_stm32f10x_md.o(RESET) refers to stm32f10x_it.o(i.HardFault_Handler) for HardFault_Handler
    startup_stm32f10x_md.o(RESET) refers to stm32f10x_it.o(i.MemManage_Handler) for MemManage_Handler
    startup_stm32f10x_md.o(RESET) refers to stm32f10x_it.o(i.BusFault_Handler) for BusFault_Handler
    startup_stm32f10x_md.o(RESET) refers to stm32f10x_it.o(i.UsageFault_Handler) for UsageFault_Handler
    startup_stm32f10x_md.o(RESET) refers to stm32f10x_it.o(i.SVC_Handler) for SVC_Handler
    startup_stm32f10x_md.o(RESET) refers to stm32f10x_it.o(i.DebugMon_Handler) for DebugMon_Handler
    startup_stm32f10x_md.o(RESET) refers to stm32f10x_it.o(i.PendSV_Handler) for PendSV_Handler
    startup_stm32f10x_md.o(RESET) refers to stm32f10x_it.o(i.SysTick_Handler) for SysTick_Handler
    startup_stm32f10x_md.o(RESET) refers to clockmenu_alarm.o(i.RTC_IRQHandler) for RTC_IRQHandler
    startup_stm32f10x_md.o(RESET) refers to timer.o(i.TIM2_IRQHandler) for TIM2_IRQHandler
    startup_stm32f10x_md.o(.text) refers (Special) to heapauxi.o(.text) for __use_two_region_memory
    startup_stm32f10x_md.o(.text) refers to system_stm32f10x.o(i.SystemInit) for SystemInit
    startup_stm32f10x_md.o(.text) refers to __main.o(!!!main) for __main
    startup_stm32f10x_md.o(.text) refers to startup_stm32f10x_md.o(HEAP) for Heap_Mem
    startup_stm32f10x_md.o(.text) refers to startup_stm32f10x_md.o(STACK) for Stack_Mem
    system_stm32f10x.o(i.SetSysClock) refers to system_stm32f10x.o(i.SetSysClockTo72) for SetSysClockTo72
    system_stm32f10x.o(i.SystemCoreClockUpdate) refers to system_stm32f10x.o(.data) for SystemCoreClock
    system_stm32f10x.o(i.SystemInit) refers to system_stm32f10x.o(i.SetSysClock) for SetSysClock
    stm32f10x_adc.o(i.ADC_DeInit) refers to stm32f10x_rcc.o(i.RCC_APB2PeriphResetCmd) for RCC_APB2PeriphResetCmd
    stm32f10x_bkp.o(i.BKP_DeInit) refers to stm32f10x_rcc.o(i.RCC_BackupResetCmd) for RCC_BackupResetCmd
    stm32f10x_can.o(i.CAN_DeInit) refers to stm32f10x_rcc.o(i.RCC_APB1PeriphResetCmd) for RCC_APB1PeriphResetCmd
    stm32f10x_can.o(i.CAN_GetITStatus) refers to stm32f10x_can.o(i.CheckITStatus) for CheckITStatus
    stm32f10x_cec.o(i.CEC_DeInit) refers to stm32f10x_rcc.o(i.RCC_APB1PeriphResetCmd) for RCC_APB1PeriphResetCmd
    stm32f10x_dac.o(i.DAC_DeInit) refers to stm32f10x_rcc.o(i.RCC_APB1PeriphResetCmd) for RCC_APB1PeriphResetCmd
    stm32f10x_flash.o(i.FLASH_EnableWriteProtection) refers to stm32f10x_flash.o(i.FLASH_WaitForLastOperation) for FLASH_WaitForLastOperation
    stm32f10x_flash.o(i.FLASH_EraseAllBank1Pages) refers to stm32f10x_flash.o(i.FLASH_WaitForLastBank1Operation) for FLASH_WaitForLastBank1Operation
    stm32f10x_flash.o(i.FLASH_EraseAllPages) refers to stm32f10x_flash.o(i.FLASH_WaitForLastOperation) for FLASH_WaitForLastOperation
    stm32f10x_flash.o(i.FLASH_EraseOptionBytes) refers to stm32f10x_flash.o(i.FLASH_GetReadOutProtectionStatus) for FLASH_GetReadOutProtectionStatus
    stm32f10x_flash.o(i.FLASH_EraseOptionBytes) refers to stm32f10x_flash.o(i.FLASH_WaitForLastOperation) for FLASH_WaitForLastOperation
    stm32f10x_flash.o(i.FLASH_ErasePage) refers to stm32f10x_flash.o(i.FLASH_WaitForLastOperation) for FLASH_WaitForLastOperation
    stm32f10x_flash.o(i.FLASH_ProgramHalfWord) refers to stm32f10x_flash.o(i.FLASH_WaitForLastOperation) for FLASH_WaitForLastOperation
    stm32f10x_flash.o(i.FLASH_ProgramOptionByteData) refers to stm32f10x_flash.o(i.FLASH_WaitForLastOperation) for FLASH_WaitForLastOperation
    stm32f10x_flash.o(i.FLASH_ProgramWord) refers to stm32f10x_flash.o(i.FLASH_WaitForLastOperation) for FLASH_WaitForLastOperation
    stm32f10x_flash.o(i.FLASH_ReadOutProtection) refers to stm32f10x_flash.o(i.FLASH_WaitForLastOperation) for FLASH_WaitForLastOperation
    stm32f10x_flash.o(i.FLASH_UserOptionByteConfig) refers to stm32f10x_flash.o(i.FLASH_WaitForLastOperation) for FLASH_WaitForLastOperation
    stm32f10x_flash.o(i.FLASH_WaitForLastBank1Operation) refers to stm32f10x_flash.o(i.FLASH_GetBank1Status) for FLASH_GetBank1Status
    stm32f10x_flash.o(i.FLASH_WaitForLastOperation) refers to stm32f10x_flash.o(i.FLASH_GetBank1Status) for FLASH_GetBank1Status
    stm32f10x_gpio.o(i.GPIO_AFIODeInit) refers to stm32f10x_rcc.o(i.RCC_APB2PeriphResetCmd) for RCC_APB2PeriphResetCmd
    stm32f10x_gpio.o(i.GPIO_DeInit) refers to stm32f10x_rcc.o(i.RCC_APB2PeriphResetCmd) for RCC_APB2PeriphResetCmd
    stm32f10x_i2c.o(i.I2C_DeInit) refers to stm32f10x_rcc.o(i.RCC_APB1PeriphResetCmd) for RCC_APB1PeriphResetCmd
    stm32f10x_i2c.o(i.I2C_Init) refers to stm32f10x_rcc.o(i.RCC_GetClocksFreq) for RCC_GetClocksFreq
    stm32f10x_pwr.o(i.PWR_DeInit) refers to stm32f10x_rcc.o(i.RCC_APB1PeriphResetCmd) for RCC_APB1PeriphResetCmd
    stm32f10x_rcc.o(i.RCC_GetClocksFreq) refers to stm32f10x_rcc.o(.data) for APBAHBPrescTable
    stm32f10x_rcc.o(i.RCC_WaitForHSEStartUp) refers to stm32f10x_rcc.o(i.RCC_GetFlagStatus) for RCC_GetFlagStatus
    stm32f10x_rtc.o(i.RTC_SetAlarm) refers to stm32f10x_rtc.o(i.RTC_EnterConfigMode) for RTC_EnterConfigMode
    stm32f10x_rtc.o(i.RTC_SetAlarm) refers to stm32f10x_rtc.o(i.RTC_ExitConfigMode) for RTC_ExitConfigMode
    stm32f10x_rtc.o(i.RTC_SetCounter) refers to stm32f10x_rtc.o(i.RTC_EnterConfigMode) for RTC_EnterConfigMode
    stm32f10x_rtc.o(i.RTC_SetCounter) refers to stm32f10x_rtc.o(i.RTC_ExitConfigMode) for RTC_ExitConfigMode
    stm32f10x_rtc.o(i.RTC_SetPrescaler) refers to stm32f10x_rtc.o(i.RTC_EnterConfigMode) for RTC_EnterConfigMode
    stm32f10x_rtc.o(i.RTC_SetPrescaler) refers to stm32f10x_rtc.o(i.RTC_ExitConfigMode) for RTC_ExitConfigMode
    stm32f10x_spi.o(i.I2S_Init) refers to stm32f10x_rcc.o(i.RCC_GetClocksFreq) for RCC_GetClocksFreq
    stm32f10x_spi.o(i.SPI_I2S_DeInit) refers to stm32f10x_rcc.o(i.RCC_APB2PeriphResetCmd) for RCC_APB2PeriphResetCmd
    stm32f10x_spi.o(i.SPI_I2S_DeInit) refers to stm32f10x_rcc.o(i.RCC_APB1PeriphResetCmd) for RCC_APB1PeriphResetCmd
    stm32f10x_tim.o(i.TIM_DeInit) refers to stm32f10x_rcc.o(i.RCC_APB2PeriphResetCmd) for RCC_APB2PeriphResetCmd
    stm32f10x_tim.o(i.TIM_DeInit) refers to stm32f10x_rcc.o(i.RCC_APB1PeriphResetCmd) for RCC_APB1PeriphResetCmd
    stm32f10x_tim.o(i.TIM_ETRClockMode1Config) refers to stm32f10x_tim.o(i.TIM_ETRConfig) for TIM_ETRConfig
    stm32f10x_tim.o(i.TIM_ETRClockMode2Config) refers to stm32f10x_tim.o(i.TIM_ETRConfig) for TIM_ETRConfig
    stm32f10x_tim.o(i.TIM_ICInit) refers to stm32f10x_tim.o(i.TI1_Config) for TI1_Config
    stm32f10x_tim.o(i.TIM_ICInit) refers to stm32f10x_tim.o(i.TIM_SetIC1Prescaler) for TIM_SetIC1Prescaler
    stm32f10x_tim.o(i.TIM_ICInit) refers to stm32f10x_tim.o(i.TI2_Config) for TI2_Config
    stm32f10x_tim.o(i.TIM_ICInit) refers to stm32f10x_tim.o(i.TIM_SetIC2Prescaler) for TIM_SetIC2Prescaler
    stm32f10x_tim.o(i.TIM_ICInit) refers to stm32f10x_tim.o(i.TI3_Config) for TI3_Config
    stm32f10x_tim.o(i.TIM_ICInit) refers to stm32f10x_tim.o(i.TIM_SetIC3Prescaler) for TIM_SetIC3Prescaler
    stm32f10x_tim.o(i.TIM_ICInit) refers to stm32f10x_tim.o(i.TI4_Config) for TI4_Config
    stm32f10x_tim.o(i.TIM_ICInit) refers to stm32f10x_tim.o(i.TIM_SetIC4Prescaler) for TIM_SetIC4Prescaler
    stm32f10x_tim.o(i.TIM_ITRxExternalClockConfig) refers to stm32f10x_tim.o(i.TIM_SelectInputTrigger) for TIM_SelectInputTrigger
    stm32f10x_tim.o(i.TIM_PWMIConfig) refers to stm32f10x_tim.o(i.TI1_Config) for TI1_Config
    stm32f10x_tim.o(i.TIM_PWMIConfig) refers to stm32f10x_tim.o(i.TIM_SetIC1Prescaler) for TIM_SetIC1Prescaler
    stm32f10x_tim.o(i.TIM_PWMIConfig) refers to stm32f10x_tim.o(i.TI2_Config) for TI2_Config
    stm32f10x_tim.o(i.TIM_PWMIConfig) refers to stm32f10x_tim.o(i.TIM_SetIC2Prescaler) for TIM_SetIC2Prescaler
    stm32f10x_tim.o(i.TIM_TIxExternalClockConfig) refers to stm32f10x_tim.o(i.TI2_Config) for TI2_Config
    stm32f10x_tim.o(i.TIM_TIxExternalClockConfig) refers to stm32f10x_tim.o(i.TI1_Config) for TI1_Config
    stm32f10x_tim.o(i.TIM_TIxExternalClockConfig) refers to stm32f10x_tim.o(i.TIM_SelectInputTrigger) for TIM_SelectInputTrigger
    stm32f10x_usart.o(i.USART_DeInit) refers to stm32f10x_rcc.o(i.RCC_APB2PeriphResetCmd) for RCC_APB2PeriphResetCmd
    stm32f10x_usart.o(i.USART_DeInit) refers to stm32f10x_rcc.o(i.RCC_APB1PeriphResetCmd) for RCC_APB1PeriphResetCmd
    stm32f10x_usart.o(i.USART_Init) refers to stm32f10x_rcc.o(i.RCC_GetClocksFreq) for RCC_GetClocksFreq
    stm32f10x_wwdg.o(i.WWDG_DeInit) refers to stm32f10x_rcc.o(i.RCC_APB1PeriphResetCmd) for RCC_APB1PeriphResetCmd
    delay.o(i.Delay_ms) refers to delay.o(i.Delay_us) for Delay_us
    delay.o(i.Delay_s) refers to delay.o(i.Delay_ms) for Delay_ms
    myrtc.o(i.MyRTC_Init) refers to stm32f10x_rcc.o(i.RCC_APB1PeriphClockCmd) for RCC_APB1PeriphClockCmd
    myrtc.o(i.MyRTC_Init) refers to stm32f10x_pwr.o(i.PWR_BackupAccessCmd) for PWR_BackupAccessCmd
    myrtc.o(i.MyRTC_Init) refers to stm32f10x_bkp.o(i.BKP_ReadBackupRegister) for BKP_ReadBackupRegister
    myrtc.o(i.MyRTC_Init) refers to stm32f10x_rcc.o(i.RCC_LSEConfig) for RCC_LSEConfig
    myrtc.o(i.MyRTC_Init) refers to stm32f10x_rcc.o(i.RCC_GetFlagStatus) for RCC_GetFlagStatus
    myrtc.o(i.MyRTC_Init) refers to stm32f10x_rcc.o(i.RCC_RTCCLKConfig) for RCC_RTCCLKConfig
    myrtc.o(i.MyRTC_Init) refers to stm32f10x_rcc.o(i.RCC_RTCCLKCmd) for RCC_RTCCLKCmd
    myrtc.o(i.MyRTC_Init) refers to stm32f10x_rtc.o(i.RTC_WaitForSynchro) for RTC_WaitForSynchro
    myrtc.o(i.MyRTC_Init) refers to stm32f10x_rtc.o(i.RTC_WaitForLastTask) for RTC_WaitForLastTask
    myrtc.o(i.MyRTC_Init) refers to stm32f10x_rtc.o(i.RTC_SetPrescaler) for RTC_SetPrescaler
    myrtc.o(i.MyRTC_Init) refers to myrtc.o(i.MyRTC_SetTime) for MyRTC_SetTime
    myrtc.o(i.MyRTC_Init) refers to stm32f10x_bkp.o(i.BKP_WriteBackupRegister) for BKP_WriteBackupRegister
    myrtc.o(i.MyRTC_ReadTime) refers to stm32f10x_rtc.o(i.RTC_GetCounter) for RTC_GetCounter
    myrtc.o(i.MyRTC_ReadTime) refers to localtime.o(.text) for localtime
    myrtc.o(i.MyRTC_ReadTime) refers to rt_memcpy_w.o(.text) for __aeabi_memcpy4
    myrtc.o(i.MyRTC_ReadTime) refers to myrtc.o(.data) for MyRTC_Time
    myrtc.o(i.MyRTC_SetAlarm) refers to myrtc.o(i.MyRTC_Init) for MyRTC_Init
    myrtc.o(i.MyRTC_SetAlarm) refers to misc.o(i.NVIC_Init) for NVIC_Init
    myrtc.o(i.MyRTC_SetAlarm) refers to stm32f10x_rtc.o(i.RTC_WaitForLastTask) for RTC_WaitForLastTask
    myrtc.o(i.MyRTC_SetAlarm) refers to stm32f10x_rtc.o(i.RTC_SetAlarm) for RTC_SetAlarm
    myrtc.o(i.MyRTC_SetAlarm) refers to stm32f10x_rtc.o(i.RTC_ITConfig) for RTC_ITConfig
    myrtc.o(i.MyRTC_SetTime) refers to mktime.o(.text) for mktime
    myrtc.o(i.MyRTC_SetTime) refers to stm32f10x_rtc.o(i.RTC_SetCounter) for RTC_SetCounter
    myrtc.o(i.MyRTC_SetTime) refers to stm32f10x_rtc.o(i.RTC_WaitForLastTask) for RTC_WaitForLastTask
    myrtc.o(i.MyRTC_SetTime) refers to myrtc.o(.data) for MyRTC_Time
    myrtc.o(i.MyRTC_TurnOffAlarm) refers to myrtc.o(i.MyRTC_Init) for MyRTC_Init
    myrtc.o(i.MyRTC_TurnOffAlarm) refers to stm32f10x_rtc.o(i.RTC_ClearITPendingBit) for RTC_ClearITPendingBit
    myrtc.o(i.MyRTC_TurnOffAlarm) refers to misc.o(i.NVIC_Init) for NVIC_Init
    myrtc.o(i.MyRTC_TurnOffAlarm) refers to stm32f10x_rtc.o(i.RTC_WaitForLastTask) for RTC_WaitForLastTask
    myrtc.o(i.MyRTC_TurnOffAlarm) refers to stm32f10x_rtc.o(i.RTC_ITConfig) for RTC_ITConfig
    myrtc.o(i.MyRTC_TurnOnAlarm) refers to myrtc.o(i.MyRTC_Init) for MyRTC_Init
    myrtc.o(i.MyRTC_TurnOnAlarm) refers to stm32f10x_rtc.o(i.RTC_ClearITPendingBit) for RTC_ClearITPendingBit
    myrtc.o(i.MyRTC_TurnOnAlarm) refers to misc.o(i.NVIC_Init) for NVIC_Init
    myrtc.o(i.MyRTC_TurnOnAlarm) refers to stm32f10x_rtc.o(i.RTC_WaitForLastTask) for RTC_WaitForLastTask
    myrtc.o(i.MyRTC_TurnOnAlarm) refers to stm32f10x_rtc.o(i.RTC_ITConfig) for RTC_ITConfig
    myflash.o(i.MyFLASH_EraseAllPages) refers to stm32f10x_flash.o(i.FLASH_Unlock) for FLASH_Unlock
    myflash.o(i.MyFLASH_EraseAllPages) refers to stm32f10x_flash.o(i.FLASH_EraseAllPages) for FLASH_EraseAllPages
    myflash.o(i.MyFLASH_EraseAllPages) refers to stm32f10x_flash.o(i.FLASH_Lock) for FLASH_Lock
    myflash.o(i.MyFLASH_ErasePage) refers to stm32f10x_flash.o(i.FLASH_Unlock) for FLASH_Unlock
    myflash.o(i.MyFLASH_ErasePage) refers to stm32f10x_flash.o(i.FLASH_ErasePage) for FLASH_ErasePage
    myflash.o(i.MyFLASH_ErasePage) refers to stm32f10x_flash.o(i.FLASH_Lock) for FLASH_Lock
    myflash.o(i.MyFLASH_ProgramHalfWord) refers to stm32f10x_flash.o(i.FLASH_Unlock) for FLASH_Unlock
    myflash.o(i.MyFLASH_ProgramHalfWord) refers to stm32f10x_flash.o(i.FLASH_ProgramHalfWord) for FLASH_ProgramHalfWord
    myflash.o(i.MyFLASH_ProgramHalfWord) refers to stm32f10x_flash.o(i.FLASH_Lock) for FLASH_Lock
    myflash.o(i.MyFLASH_ProgramWord) refers to stm32f10x_flash.o(i.FLASH_Unlock) for FLASH_Unlock
    myflash.o(i.MyFLASH_ProgramWord) refers to stm32f10x_flash.o(i.FLASH_ProgramWord) for FLASH_ProgramWord
    myflash.o(i.MyFLASH_ProgramWord) refers to stm32f10x_flash.o(i.FLASH_Lock) for FLASH_Lock
    store.o(i.Store_Clear) refers to store.o(i.Store_Save) for Store_Save
    store.o(i.Store_Clear) refers to store.o(.bss) for Store_Data
    store.o(i.Store_Init) refers to myflash.o(i.MyFLASH_ReadHalfWord) for MyFLASH_ReadHalfWord
    store.o(i.Store_Init) refers to myflash.o(i.MyFLASH_ErasePage) for MyFLASH_ErasePage
    store.o(i.Store_Init) refers to myflash.o(i.MyFLASH_ProgramHalfWord) for MyFLASH_ProgramHalfWord
    store.o(i.Store_Init) refers to store.o(.bss) for Store_Data
    store.o(i.Store_Save) refers to myflash.o(i.MyFLASH_ErasePage) for MyFLASH_ErasePage
    store.o(i.Store_Save) refers to myflash.o(i.MyFLASH_ProgramHalfWord) for MyFLASH_ProgramHalfWord
    store.o(i.Store_Save) refers to store.o(.bss) for Store_Data
    key.o(i.Key_GetState) refers to stm32f10x_gpio.o(i.GPIO_ReadInputDataBit) for GPIO_ReadInputDataBit
    key.o(i.Key_Init) refers to stm32f10x_rcc.o(i.RCC_APB2PeriphClockCmd) for RCC_APB2PeriphClockCmd
    key.o(i.Key_Init) refers to stm32f10x_gpio.o(i.GPIO_Init) for GPIO_Init
    key.o(i.Key_Init) refers to timer.o(i.Timer_AddFunction) for Timer_AddFunction
    key.o(i.Key_Init) refers to timer.o(i.Timer_Start) for Timer_Start
    key.o(i.Key_Init) refers to key.o(i.Key_Loop) for Key_Loop
    key.o(i.Key_Loop) refers to key.o(i.Key_GetState) for Key_GetState
    key.o(i.Key_Loop) refers to message.o(i.MSG_SendMessage) for MSG_SendMessage
    key.o(i.Key_Loop) refers to key.o(.data) for NowState
    oled.o(i.OLED_Clear) refers to oled.o(.bss) for OLED_DisplayBuf
    oled.o(i.OLED_ClearArea) refers to oled.o(.bss) for OLED_DisplayBuf
    oled.o(i.OLED_CopyDisplayBuf) refers to oled.o(.bss) for OLED_DisplayBuf
    oled.o(i.OLED_DrawArc) refers to oled.o(i.OLED_IsInAngle) for OLED_IsInAngle
    oled.o(i.OLED_DrawArc) refers to oled.o(i.OLED_DrawPoint) for OLED_DrawPoint
    oled.o(i.OLED_DrawCircle) refers to oled.o(i.OLED_DrawPoint) for OLED_DrawPoint
    oled.o(i.OLED_DrawEllipse) refers to dflt_clz.o(x$fpl$dflt) for __aeabi_i2d
    oled.o(i.OLED_DrawEllipse) refers to daddsub_clz.o(x$fpl$dadd) for __aeabi_dadd
    oled.o(i.OLED_DrawEllipse) refers to dmul.o(x$fpl$dmul) for __aeabi_dmul
    oled.o(i.OLED_DrawEllipse) refers to d2f.o(x$fpl$d2f) for __aeabi_d2f
    oled.o(i.OLED_DrawEllipse) refers to oled.o(i.OLED_DrawPoint) for OLED_DrawPoint
    oled.o(i.OLED_DrawEllipse) refers to fleqf.o(x$fpl$fleqf) for __aeabi_cfcmple
    oled.o(i.OLED_DrawEllipse) refers to fflt_clz.o(x$fpl$fflt) for __aeabi_i2f
    oled.o(i.OLED_DrawEllipse) refers to faddsub_clz.o(x$fpl$fadd) for __aeabi_fadd
    oled.o(i.OLED_DrawEllipse) refers to daddsub_clz.o(x$fpl$dsub) for __aeabi_dsub
    oled.o(i.OLED_DrawEllipse) refers to dleqf.o(x$fpl$dleqf) for __aeabi_cdcmple
    oled.o(i.OLED_DrawLine) refers to oled.o(i.OLED_DrawPoint) for OLED_DrawPoint
    oled.o(i.OLED_DrawPoint) refers to oled.o(.bss) for OLED_DisplayBuf
    oled.o(i.OLED_DrawRectangle) refers to oled.o(i.OLED_DrawPoint) for OLED_DrawPoint
    oled.o(i.OLED_DrawTriangle) refers to oled.o(i.OLED_DrawLine) for OLED_DrawLine
    oled.o(i.OLED_DrawTriangle) refers to oled.o(i.OLED_pnpoly) for OLED_pnpoly
    oled.o(i.OLED_DrawTriangle) refers to oled.o(i.OLED_DrawPoint) for OLED_DrawPoint
    oled.o(i.OLED_GPIO_Init) refers to stm32f10x_rcc.o(i.RCC_APB2PeriphClockCmd) for RCC_APB2PeriphClockCmd
    oled.o(i.OLED_GPIO_Init) refers to stm32f10x_gpio.o(i.GPIO_Init) for GPIO_Init
    oled.o(i.OLED_GPIO_Init) refers to oled.o(i.OLED_W_SCL) for OLED_W_SCL
    oled.o(i.OLED_GPIO_Init) refers to oled.o(i.OLED_W_SDA) for OLED_W_SDA
    oled.o(i.OLED_GetPoint) refers to oled.o(.bss) for OLED_DisplayBuf
    oled.o(i.OLED_I2C_SendByte) refers to oled.o(i.OLED_W_SDA) for OLED_W_SDA
    oled.o(i.OLED_I2C_SendByte) refers to oled.o(i.OLED_W_SCL) for OLED_W_SCL
    oled.o(i.OLED_I2C_Start) refers to oled.o(i.OLED_W_SDA) for OLED_W_SDA
    oled.o(i.OLED_I2C_Start) refers to oled.o(i.OLED_W_SCL) for OLED_W_SCL
    oled.o(i.OLED_I2C_Stop) refers to oled.o(i.OLED_W_SDA) for OLED_W_SDA
    oled.o(i.OLED_I2C_Stop) refers to oled.o(i.OLED_W_SCL) for OLED_W_SCL
    oled.o(i.OLED_Init) refers to oled.o(i.OLED_GPIO_Init) for OLED_GPIO_Init
    oled.o(i.OLED_Init) refers to oled.o(i.OLED_WriteCommand) for OLED_WriteCommand
    oled.o(i.OLED_Init) refers to oled.o(i.OLED_Clear) for OLED_Clear
    oled.o(i.OLED_Init) refers to oled.o(i.OLED_Update) for OLED_Update
    oled.o(i.OLED_IsInAngle) refers to dflt_clz.o(x$fpl$dflt) for __aeabi_i2d
    oled.o(i.OLED_IsInAngle) refers to atan2.o(i.atan2) for atan2
    oled.o(i.OLED_IsInAngle) refers to ddiv.o(x$fpl$ddiv) for __aeabi_ddiv
    oled.o(i.OLED_IsInAngle) refers to dmul.o(x$fpl$dmul) for __aeabi_dmul
    oled.o(i.OLED_IsInAngle) refers to dfix.o(x$fpl$dfix) for __aeabi_d2iz
    oled.o(i.OLED_Printf) refers to vsprintf.o(.text) for vsprintf
    oled.o(i.OLED_Printf) refers to oled.o(i.OLED_ShowString) for OLED_ShowString
    oled.o(i.OLED_Reverse) refers to oled.o(.bss) for OLED_DisplayBuf
    oled.o(i.OLED_ReverseArea) refers to oled.o(.bss) for OLED_DisplayBuf
    oled.o(i.OLED_SetCursor) refers to oled.o(i.OLED_WriteCommand) for OLED_WriteCommand
    oled.o(i.OLED_ShowBinNum) refers to oled.o(i.OLED_Pow) for OLED_Pow
    oled.o(i.OLED_ShowBinNum) refers to oled.o(i.OLED_ShowChar) for OLED_ShowChar
    oled.o(i.OLED_ShowChar) refers to oled.o(i.OLED_ShowImage) for OLED_ShowImage
    oled.o(i.OLED_ShowChar) refers to oled_data.o(.constdata) for OLED_F8x16
    oled.o(i.OLED_ShowChinese) refers to strcmpv7m.o(.text) for strcmp
    oled.o(i.OLED_ShowChinese) refers to oled.o(i.OLED_ShowImage) for OLED_ShowImage
    oled.o(i.OLED_ShowChinese) refers to oled_data.o(.constdata) for OLED_CF16x16
    oled.o(i.OLED_ShowFloatNum) refers to drleqf.o(x$fpl$drleqf) for __aeabi_cdrcmple
    oled.o(i.OLED_ShowFloatNum) refers to oled.o(i.OLED_ShowChar) for OLED_ShowChar
    oled.o(i.OLED_ShowFloatNum) refers to dfixu.o(x$fpl$dfixu) for __aeabi_d2uiz
    oled.o(i.OLED_ShowFloatNum) refers to dflt_clz.o(x$fpl$dfltu) for __aeabi_ui2d
    oled.o(i.OLED_ShowFloatNum) refers to daddsub_clz.o(x$fpl$drsb) for __aeabi_drsub
    oled.o(i.OLED_ShowFloatNum) refers to oled.o(i.OLED_Pow) for OLED_Pow
    oled.o(i.OLED_ShowFloatNum) refers to dmul.o(x$fpl$dmul) for __aeabi_dmul
    oled.o(i.OLED_ShowFloatNum) refers to round.o(i.round) for round
    oled.o(i.OLED_ShowFloatNum) refers to oled.o(i.OLED_ShowNum) for OLED_ShowNum
    oled.o(i.OLED_ShowHexNum) refers to oled.o(i.OLED_Pow) for OLED_Pow
    oled.o(i.OLED_ShowHexNum) refers to oled.o(i.OLED_ShowChar) for OLED_ShowChar
    oled.o(i.OLED_ShowImage) refers to oled.o(i.OLED_ClearArea) for OLED_ClearArea
    oled.o(i.OLED_ShowImage) refers to oled.o(.bss) for OLED_DisplayBuf
    oled.o(i.OLED_ShowNum) refers to oled.o(i.OLED_Pow) for OLED_Pow
    oled.o(i.OLED_ShowNum) refers to oled.o(i.OLED_ShowChar) for OLED_ShowChar
    oled.o(i.OLED_ShowSignedNum) refers to oled.o(i.OLED_ShowChar) for OLED_ShowChar
    oled.o(i.OLED_ShowSignedNum) refers to oled.o(i.OLED_Pow) for OLED_Pow
    oled.o(i.OLED_ShowString) refers to oled.o(i.OLED_ShowChar) for OLED_ShowChar
    oled.o(i.OLED_Update) refers to oled.o(i.OLED_SetCursor) for OLED_SetCursor
    oled.o(i.OLED_Update) refers to oled.o(i.OLED_WriteData) for OLED_WriteData
    oled.o(i.OLED_Update) refers to oled.o(.bss) for OLED_DisplayBuf
    oled.o(i.OLED_UpdateArea) refers to oled.o(i.OLED_SetCursor) for OLED_SetCursor
    oled.o(i.OLED_UpdateArea) refers to oled.o(i.OLED_WriteData) for OLED_WriteData
    oled.o(i.OLED_UpdateArea) refers to oled.o(.bss) for OLED_DisplayBuf
    oled.o(i.OLED_W_SCL) refers to stm32f10x_gpio.o(i.GPIO_WriteBit) for GPIO_WriteBit
    oled.o(i.OLED_W_SDA) refers to stm32f10x_gpio.o(i.GPIO_WriteBit) for GPIO_WriteBit
    oled.o(i.OLED_WriteCommand) refers to oled.o(i.OLED_I2C_Start) for OLED_I2C_Start
    oled.o(i.OLED_WriteCommand) refers to oled.o(i.OLED_I2C_SendByte) for OLED_I2C_SendByte
    oled.o(i.OLED_WriteCommand) refers to oled.o(i.OLED_I2C_Stop) for OLED_I2C_Stop
    oled.o(i.OLED_WriteData) refers to oled.o(i.OLED_I2C_Start) for OLED_I2C_Start
    oled.o(i.OLED_WriteData) refers to oled.o(i.OLED_I2C_SendByte) for OLED_I2C_SendByte
    oled.o(i.OLED_WriteData) refers to oled.o(i.OLED_I2C_Stop) for OLED_I2C_Stop
    encoder.o(i.Encoder_GetCounter) refers to stm32f10x_tim.o(i.TIM_GetCounter) for TIM_GetCounter
    encoder.o(i.Encoder_GetCounter) refers to stm32f10x_tim.o(i.TIM_SetCounter) for TIM_SetCounter
    encoder.o(i.Encoder_Init) refers to stm32f10x_rcc.o(i.RCC_APB2PeriphClockCmd) for RCC_APB2PeriphClockCmd
    encoder.o(i.Encoder_Init) refers to stm32f10x_rcc.o(i.RCC_APB1PeriphClockCmd) for RCC_APB1PeriphClockCmd
    encoder.o(i.Encoder_Init) refers to stm32f10x_gpio.o(i.GPIO_Init) for GPIO_Init
    encoder.o(i.Encoder_Init) refers to stm32f10x_tim.o(i.TIM_TimeBaseInit) for TIM_TimeBaseInit
    encoder.o(i.Encoder_Init) refers to stm32f10x_tim.o(i.TIM_ICStructInit) for TIM_ICStructInit
    encoder.o(i.Encoder_Init) refers to stm32f10x_tim.o(i.TIM_ICInit) for TIM_ICInit
    encoder.o(i.Encoder_Init) refers to stm32f10x_tim.o(i.TIM_EncoderInterfaceConfig) for TIM_EncoderInterfaceConfig
    encoder.o(i.Encoder_Init) refers to stm32f10x_tim.o(i.TIM_Cmd) for TIM_Cmd
    encoder.o(i.Encoder_Init) refers to timer.o(i.Timer_AddFunction) for Timer_AddFunction
    encoder.o(i.Encoder_Init) refers to timer.o(i.Timer_Start) for Timer_Start
    encoder.o(i.Encoder_Init) refers to encoder.o(i.Encoder_Loop) for Encoder_Loop
    encoder.o(i.Encoder_Loop) refers to encoder.o(i.Encoder_GetCounter) for Encoder_GetCounter
    encoder.o(i.Encoder_Loop) refers to message.o(i.MSG_SendMessage) for MSG_SendMessage
    encoder.o(i.Encoder_Loop) refers to stm32f10x_gpio.o(i.GPIO_ReadInputDataBit) for GPIO_ReadInputDataBit
    encoder.o(i.Encoder_Loop) refers to encoder.o(.data) for Right
    timer.o(i.TIM2_IRQHandler) refers to stm32f10x_tim.o(i.TIM_GetITStatus) for TIM_GetITStatus
    timer.o(i.TIM2_IRQHandler) refers to stm32f10x_tim.o(i.TIM_ClearITPendingBit) for TIM_ClearITPendingBit
    timer.o(i.TIM2_IRQHandler) refers to message.o(i.MSG_SendMessage) for MSG_SendMessage
    timer.o(i.TIM2_IRQHandler) refers to timer.o(.bss) for TL
    timer.o(i.Timer_AddFunction) refers to timer.o(.bss) for TL
    timer.o(i.Timer_DeleteFunction) refers to timer.o(.bss) for TL
    timer.o(i.Timer_Init) refers to stm32f10x_rcc.o(i.RCC_APB1PeriphClockCmd) for RCC_APB1PeriphClockCmd
    timer.o(i.Timer_Init) refers to stm32f10x_tim.o(i.TIM_InternalClockConfig) for TIM_InternalClockConfig
    timer.o(i.Timer_Init) refers to stm32f10x_tim.o(i.TIM_TimeBaseInit) for TIM_TimeBaseInit
    timer.o(i.Timer_Init) refers to stm32f10x_tim.o(i.TIM_ClearFlag) for TIM_ClearFlag
    timer.o(i.Timer_Init) refers to stm32f10x_tim.o(i.TIM_ITConfig) for TIM_ITConfig
    timer.o(i.Timer_Init) refers to misc.o(i.NVIC_Init) for NVIC_Init
    timer.o(i.Timer_Init) refers to stm32f10x_tim.o(i.TIM_Cmd) for TIM_Cmd
    timer.o(i.Timer_Init) refers to timer.o(.bss) for TL
    timer.o(i.Timer_SetCount) refers to timer.o(.bss) for TL
    timer.o(i.Timer_SetTarget) refers to timer.o(.bss) for TL
    timer.o(i.Timer_Start) refers to timer.o(.bss) for TL
    timer.o(i.Timer_StartAll) refers to timer.o(.bss) for TL
    timer.o(i.Timer_Stop) refers to timer.o(.bss) for TL
    timer.o(i.Timer_StopAll) refers to timer.o(.bss) for TL
    timer.o(i.Timer_ToFunction_ByID) refers to timer.o(.bss) for TL
    msg.o(i.MSG_DefaultProc) refers to timer.o(i.Timer_ToFunction_ByID) for Timer_ToFunction_ByID
    message.o(i.MSG_GetMessage) refers to message.o(i.MSG_isEmpty) for MSG_isEmpty
    message.o(i.MSG_GetMessage) refers to message.o(.bss) for MQ
    message.o(i.MSG_Init) refers to message.o(i.MSG_SendInitMessage) for MSG_SendInitMessage
    message.o(i.MSG_Init) refers to message.o(.bss) for MQ
    message.o(i.MSG_SendInitMessage) refers to message.o(.constdata) for .constdata
    message.o(i.MSG_SendInitMessage) refers to message.o(.bss) for MQ
    message.o(i.MSG_SendMessage) refers to message.o(i.MSG_MQOverflow) for MSG_MQOverflow
    message.o(i.MSG_SendMessage) refers to message.o(.bss) for MQ
    message.o(i.MSG_isEmpty) refers to message.o(.bss) for MQ
    gui.o(i.GUI_Display) refers to oled.o(i.OLED_Clear) for OLED_Clear
    gui.o(i.GUI_Display) refers to menu.o(i.Menu_GetFather) for Menu_GetFather
    gui.o(i.GUI_Display) refers to oled.o(i.OLED_ShowChinese) for OLED_ShowChinese
    gui.o(i.GUI_Display) refers to menu.o(i.Menu_GetName) for Menu_GetName
    gui.o(i.GUI_Display) refers to strlen.o(.text) for strlen
    gui.o(i.GUI_Display) refers to menu.o(i.Menu_GetLast) for Menu_GetLast
    gui.o(i.GUI_Display) refers to oled.o(i.OLED_ShowImage) for OLED_ShowImage
    gui.o(i.GUI_Display) refers to menu.o(i.Menu_GetIcon) for Menu_GetIcon
    gui.o(i.GUI_Display) refers to menu.o(i.Menu_GetNext) for Menu_GetNext
    gui.o(i.GUI_Display) refers to oled.o(i.OLED_DrawRectangle) for OLED_DrawRectangle
    gui.o(i.GUI_Display) refers to oled.o(i.OLED_Update) for OLED_Update
    gui.o(i.GUI_Init) refers to oled.o(i.OLED_Init) for OLED_Init
    gui.o(i.GUI_Init) refers to clockmenu.o(i.ClockMenu_Init) for ClockMenu_Init
    gui.o(i.GUI_Init) refers to gamemenu.o(i.GameMenu_Init) for GameMenu_Init
    gui.o(i.GUI_Init) refers to textmenu.o(i.TextMenu_Init) for TextMenu_Init
    gui.o(i.GUI_Init) refers to settingmenu.o(i.SettingMenu_Init) for SettingMenu_Init
    gui.o(i.GUI_Init) refers to gui.o(i.GUI_SetRelationship) for GUI_SetRelationship
    gui.o(i.GUI_Init) refers to menu.o(i.Menu_SetCurrent) for Menu_SetCurrent
    gui.o(i.GUI_Init) refers to clockmenu.o(.bss) for ClockMenu
    gui.o(i.GUI_ReceiveCommand) refers to gui.o(i.GUI_ToFunsion) for GUI_ToFunsion
    gui.o(i.GUI_ReceiveCommand) refers to gui.o(i.GUI_ToChild) for GUI_ToChild
    gui.o(i.GUI_ReceiveCommand) refers to gui.o(i.GUI_ToFather) for GUI_ToFather
    gui.o(i.GUI_ReceiveCommand) refers to gui.o(i.GUI_ToLast) for GUI_ToLast
    gui.o(i.GUI_ReceiveCommand) refers to gui.o(i.GUI_ToNext) for GUI_ToNext
    gui.o(i.GUI_SetRelationship) refers to menu.o(i.Menu_SetNext) for Menu_SetNext
    gui.o(i.GUI_SetRelationship) refers to gamemenu.o(.bss) for GameMenu
    gui.o(i.GUI_SetRelationship) refers to clockmenu.o(.bss) for ClockMenu
    gui.o(i.GUI_SetRelationship) refers to textmenu.o(.bss) for TextMenu
    gui.o(i.GUI_SetRelationship) refers to settingmenu.o(.bss) for SettingMenu
    gui.o(i.GUI_ToChild) refers to menu.o(i.Menu_ToChild) for Menu_ToChild
    gui.o(i.GUI_ToFather) refers to menu.o(i.Menu_ToFather) for Menu_ToFather
    gui.o(i.GUI_ToFunsion) refers to menu.o(i.Menu_ToFunsion) for Menu_ToFunsion
    gui.o(i.GUI_ToLast) refers to menu.o(i.Menu_ToLast) for Menu_ToLast
    gui.o(i.GUI_ToLast) refers to oled.o(i.OLED_ClearArea) for OLED_ClearArea
    gui.o(i.GUI_ToLast) refers to menu.o(i.Menu_GetNext) for Menu_GetNext
    gui.o(i.GUI_ToLast) refers to oled.o(i.OLED_ShowImage) for OLED_ShowImage
    gui.o(i.GUI_ToLast) refers to menu.o(i.Menu_GetIcon) for Menu_GetIcon
    gui.o(i.GUI_ToLast) refers to menu.o(i.Menu_GetLast) for Menu_GetLast
    gui.o(i.GUI_ToLast) refers to oled.o(i.OLED_Update) for OLED_Update
    gui.o(i.GUI_ToLast) refers to delay.o(i.Delay_ms) for Delay_ms
    gui.o(i.GUI_ToNext) refers to menu.o(i.Menu_ToNext) for Menu_ToNext
    gui.o(i.GUI_ToNext) refers to oled.o(i.OLED_ClearArea) for OLED_ClearArea
    gui.o(i.GUI_ToNext) refers to menu.o(i.Menu_GetLast) for Menu_GetLast
    gui.o(i.GUI_ToNext) refers to oled.o(i.OLED_ShowImage) for OLED_ShowImage
    gui.o(i.GUI_ToNext) refers to menu.o(i.Menu_GetIcon) for Menu_GetIcon
    gui.o(i.GUI_ToNext) refers to menu.o(i.Menu_GetNext) for Menu_GetNext
    gui.o(i.GUI_ToNext) refers to oled.o(i.OLED_Update) for OLED_Update
    gui.o(i.GUI_ToNext) refers to delay.o(i.Delay_ms) for Delay_ms
    menu.o(i.Menu_GetChild) refers to menu.o(.data) for Menu_Current
    menu.o(i.Menu_GetCurrent) refers to menu.o(.data) for Menu_Current
    menu.o(i.Menu_GetFather) refers to menu.o(.data) for Menu_Current
    menu.o(i.Menu_GetIcon) refers to menu.o(.data) for Menu_Current
    menu.o(i.Menu_GetLast) refers to menu.o(.data) for Menu_Current
    menu.o(i.Menu_GetName) refers to menu.o(.data) for Menu_Current
    menu.o(i.Menu_GetNext) refers to menu.o(.data) for Menu_Current
    menu.o(i.Menu_SetCurrent) refers to menu.o(.data) for Menu_Current
    menu.o(i.Menu_SetFather) refers to menu.o(i.Menu_SetNext) for Menu_SetNext
    menu.o(i.Menu_ToChild) refers to menu.o(.data) for Menu_Current
    menu.o(i.Menu_ToFather) refers to menu.o(i.Menu_SetChild) for Menu_SetChild
    menu.o(i.Menu_ToFather) refers to menu.o(.data) for Menu_Current
    menu.o(i.Menu_ToFunsion) refers to menu.o(.data) for Menu_Current
    menu.o(i.Menu_ToLast) refers to menu.o(.data) for Menu_Current
    menu.o(i.Menu_ToNext) refers to menu.o(.data) for Menu_Current
    gamemenu.o(i.GameMenu_Init) refers to menu.o(i.Menu_Init) for Menu_Init
    gamemenu.o(i.GameMenu_Init) refers to gamemenu_tetris.o(i.GameMenu_Tetris_Init) for GameMenu_Tetris_Init
    gamemenu.o(i.GameMenu_Init) refers to gamemenu_snake.o(i.GameMenu_Snake_Init) for GameMenu_Snake_Init
    gamemenu.o(i.GameMenu_Init) refers to gamemenu_minesweeper.o(i.GameMenu_Minesweeper_Init) for GameMenu_Minesweeper_Init
    gamemenu.o(i.GameMenu_Init) refers to menu.o(i.Menu_SetFather) for Menu_SetFather
    gamemenu.o(i.GameMenu_Init) refers to gamemenu.o(.bss) for GameMenu
    gamemenu.o(i.GameMenu_Init) refers to gamemenu.o(i.GameMenu_Funsion) for GameMenu_Funsion
    gamemenu.o(i.GameMenu_Init) refers to gamemenu.o(.constdata) for GameMenu_Icon
    gamemenu.o(i.GameMenu_Init) refers to gamemenu.o(.data) for GameMenu_Name
    gamemenu.o(i.GameMenu_Init) refers to gamemenu_tetris.o(.bss) for GameMenu_Tetris
    gamemenu.o(i.GameMenu_Init) refers to gamemenu_snake.o(.bss) for GameMenu_Snake
    gamemenu.o(i.GameMenu_Init) refers to gamemenu_minesweeper.o(.bss) for GameMenu_Minesweeper
    gamemenu.o(.data) refers to gamemenu.o(.conststring) for .conststring
    gamemenu_minesweeper.o(i.GameMenu_Minesweeper_Funsion) refers to gamemenu_minesweeper.o(i.GameMenu_Minesweeper_View_MAIN) for GameMenu_Minesweeper_View_MAIN
    gamemenu_minesweeper.o(i.GameMenu_Minesweeper_Funsion) refers to timer.o(i.Timer_AddFunction) for Timer_AddFunction
    gamemenu_minesweeper.o(i.GameMenu_Minesweeper_Funsion) refers to message.o(i.MSG_GetMessage) for MSG_GetMessage
    gamemenu_minesweeper.o(i.GameMenu_Minesweeper_Funsion) refers to gamemenu_minesweeper.o(i.GameMenu_Minesweeper_View_LEVEL) for GameMenu_Minesweeper_View_LEVEL
    gamemenu_minesweeper.o(i.GameMenu_Minesweeper_Funsion) refers to gamemenu_minesweeper.o(i.Minesweeper_Init) for Minesweeper_Init
    gamemenu_minesweeper.o(i.GameMenu_Minesweeper_Funsion) refers to gamemenu_minesweeper.o(i.Minesweeper_Display) for Minesweeper_Display
    gamemenu_minesweeper.o(i.GameMenu_Minesweeper_Funsion) refers to timer.o(i.Timer_Start) for Timer_Start
    gamemenu_minesweeper.o(i.GameMenu_Minesweeper_Funsion) refers to timer.o(i.Timer_Stop) for Timer_Stop
    gamemenu_minesweeper.o(i.GameMenu_Minesweeper_Funsion) refers to gamemenu_minesweeper.o(i.Minesweeper_Up) for Minesweeper_Up
    gamemenu_minesweeper.o(i.GameMenu_Minesweeper_Funsion) refers to timer.o(i.Timer_DeleteFunction) for Timer_DeleteFunction
    gamemenu_minesweeper.o(i.GameMenu_Minesweeper_Funsion) refers to gamemenu_minesweeper.o(i.Minesweeper_Down) for Minesweeper_Down
    gamemenu_minesweeper.o(i.GameMenu_Minesweeper_Funsion) refers to gamemenu_minesweeper.o(i.Minesweeper_Save) for Minesweeper_Save
    gamemenu_minesweeper.o(i.GameMenu_Minesweeper_Funsion) refers to gamemenu_minesweeper.o(i.GameMenu_Minesweeper_View_RECORD) for GameMenu_Minesweeper_View_RECORD
    gamemenu_minesweeper.o(i.GameMenu_Minesweeper_Funsion) refers to gamemenu_minesweeper.o(i.Minesweeper_Sweep) for Minesweeper_Sweep
    gamemenu_minesweeper.o(i.GameMenu_Minesweeper_Funsion) refers to gamemenu_minesweeper.o(i.GameMenu_Minesweeper_View_HELP) for GameMenu_Minesweeper_View_HELP
    gamemenu_minesweeper.o(i.GameMenu_Minesweeper_Funsion) refers to gamemenu_minesweeper.o(i.GameMenu_Minesweeper_View_PAUSE) for GameMenu_Minesweeper_View_PAUSE
    gamemenu_minesweeper.o(i.GameMenu_Minesweeper_Funsion) refers to gamemenu_minesweeper.o(i.Minesweeper_Right) for Minesweeper_Right
    gamemenu_minesweeper.o(i.GameMenu_Minesweeper_Funsion) refers to gamemenu_minesweeper.o(i.Minesweeper_Left) for Minesweeper_Left
    gamemenu_minesweeper.o(i.GameMenu_Minesweeper_Funsion) refers to msg.o(i.MSG_DefaultProc) for MSG_DefaultProc
    gamemenu_minesweeper.o(i.GameMenu_Minesweeper_Funsion) refers to gamemenu_minesweeper.o(.data) for Status
    gamemenu_minesweeper.o(i.GameMenu_Minesweeper_Funsion) refers to gamemenu_minesweeper.o(i.Minesweeper_Loop) for Minesweeper_Loop
    gamemenu_minesweeper.o(i.GameMenu_Minesweeper_Init) refers to menu.o(i.Menu_Init) for Menu_Init
    gamemenu_minesweeper.o(i.GameMenu_Minesweeper_Init) refers to store.o(i.Store_Init) for Store_Init
    gamemenu_minesweeper.o(i.GameMenu_Minesweeper_Init) refers to myrtc.o(i.MyRTC_Init) for MyRTC_Init
    gamemenu_minesweeper.o(i.GameMenu_Minesweeper_Init) refers to key.o(i.Key_Init) for Key_Init
    gamemenu_minesweeper.o(i.GameMenu_Minesweeper_Init) refers to encoder.o(i.Encoder_Init) for Encoder_Init
    gamemenu_minesweeper.o(i.GameMenu_Minesweeper_Init) refers to stm32f10x_rtc.o(i.RTC_GetCounter) for RTC_GetCounter
    gamemenu_minesweeper.o(i.GameMenu_Minesweeper_Init) refers to rand.o(.text) for srand
    gamemenu_minesweeper.o(i.GameMenu_Minesweeper_Init) refers to gamemenu_minesweeper.o(.bss) for GameMenu_Minesweeper
    gamemenu_minesweeper.o(i.GameMenu_Minesweeper_Init) refers to gamemenu_minesweeper.o(i.GameMenu_Minesweeper_Funsion) for GameMenu_Minesweeper_Funsion
    gamemenu_minesweeper.o(i.GameMenu_Minesweeper_Init) refers to gamemenu_minesweeper.o(.constdata) for GameMenu_Minesweeper_Icon
    gamemenu_minesweeper.o(i.GameMenu_Minesweeper_Init) refers to gamemenu_minesweeper.o(.data) for GameMenu_Minesweeper_Name
    gamemenu_minesweeper.o(i.GameMenu_Minesweeper_View_HELP) refers to oled.o(i.OLED_Clear) for OLED_Clear
    gamemenu_minesweeper.o(i.GameMenu_Minesweeper_View_HELP) refers to oled.o(i.OLED_ShowChinese) for OLED_ShowChinese
    gamemenu_minesweeper.o(i.GameMenu_Minesweeper_View_HELP) refers to oled.o(i.OLED_Update) for OLED_Update
    gamemenu_minesweeper.o(i.GameMenu_Minesweeper_View_LEVEL) refers to oled.o(i.OLED_Clear) for OLED_Clear
    gamemenu_minesweeper.o(i.GameMenu_Minesweeper_View_LEVEL) refers to oled.o(i.OLED_ShowImage) for OLED_ShowImage
    gamemenu_minesweeper.o(i.GameMenu_Minesweeper_View_LEVEL) refers to oled.o(i.OLED_ShowChinese) for OLED_ShowChinese
    gamemenu_minesweeper.o(i.GameMenu_Minesweeper_View_LEVEL) refers to oled.o(i.OLED_Update) for OLED_Update
    gamemenu_minesweeper.o(i.GameMenu_Minesweeper_View_LEVEL) refers to oled_data.o(.constdata) for Button
    gamemenu_minesweeper.o(i.GameMenu_Minesweeper_View_MAIN) refers to oled.o(i.OLED_Clear) for OLED_Clear
    gamemenu_minesweeper.o(i.GameMenu_Minesweeper_View_MAIN) refers to oled.o(i.OLED_ShowImage) for OLED_ShowImage
    gamemenu_minesweeper.o(i.GameMenu_Minesweeper_View_MAIN) refers to oled.o(i.OLED_ShowChinese) for OLED_ShowChinese
    gamemenu_minesweeper.o(i.GameMenu_Minesweeper_View_MAIN) refers to oled.o(i.OLED_Update) for OLED_Update
    gamemenu_minesweeper.o(i.GameMenu_Minesweeper_View_MAIN) refers to oled_data.o(.constdata) for Button
    gamemenu_minesweeper.o(i.GameMenu_Minesweeper_View_PAUSE) refers to oled.o(i.OLED_Clear) for OLED_Clear
    gamemenu_minesweeper.o(i.GameMenu_Minesweeper_View_PAUSE) refers to oled.o(i.OLED_ShowImage) for OLED_ShowImage
    gamemenu_minesweeper.o(i.GameMenu_Minesweeper_View_PAUSE) refers to oled.o(i.OLED_ShowChinese) for OLED_ShowChinese
    gamemenu_minesweeper.o(i.GameMenu_Minesweeper_View_PAUSE) refers to oled.o(i.OLED_Update) for OLED_Update
    gamemenu_minesweeper.o(i.GameMenu_Minesweeper_View_PAUSE) refers to oled_data.o(.constdata) for Button
    gamemenu_minesweeper.o(i.GameMenu_Minesweeper_View_RECORD) refers to oled.o(i.OLED_Clear) for OLED_Clear
    gamemenu_minesweeper.o(i.GameMenu_Minesweeper_View_RECORD) refers to oled.o(i.OLED_ShowChinese) for OLED_ShowChinese
    gamemenu_minesweeper.o(i.GameMenu_Minesweeper_View_RECORD) refers to oled.o(i.OLED_Printf) for OLED_Printf
    gamemenu_minesweeper.o(i.GameMenu_Minesweeper_View_RECORD) refers to oled.o(i.OLED_Update) for OLED_Update
    gamemenu_minesweeper.o(i.GameMenu_Minesweeper_View_RECORD) refers to store.o(.bss) for Store_Data
    gamemenu_minesweeper.o(i.Minesweeper_ClearArea) refers to gamemenu_minesweeper.o(i.Minesweeper_NearbyMineNum) for Minesweeper_NearbyMineNum
    gamemenu_minesweeper.o(i.Minesweeper_ClearArea) refers to gamemenu_minesweeper.o(.bss) for Game
    gamemenu_minesweeper.o(i.Minesweeper_CreateMine) refers to rand.o(.emb_text) for rand
    gamemenu_minesweeper.o(i.Minesweeper_CreateMine) refers to gamemenu_minesweeper.o(.bss) for Game
    gamemenu_minesweeper.o(i.Minesweeper_Display) refers to oled.o(i.OLED_Clear) for OLED_Clear
    gamemenu_minesweeper.o(i.Minesweeper_Display) refers to oled.o(i.OLED_DrawLine) for OLED_DrawLine
    gamemenu_minesweeper.o(i.Minesweeper_Display) refers to oled.o(i.OLED_DrawRectangle) for OLED_DrawRectangle
    gamemenu_minesweeper.o(i.Minesweeper_Display) refers to oled.o(i.OLED_ShowImage) for OLED_ShowImage
    gamemenu_minesweeper.o(i.Minesweeper_Display) refers to oled.o(i.OLED_Update) for OLED_Update
    gamemenu_minesweeper.o(i.Minesweeper_Display) refers to gamemenu_minesweeper.o(.bss) for Game
    gamemenu_minesweeper.o(i.Minesweeper_Display) refers to gamemenu_minesweeper.o(.constdata) for Minesweeper_MineImage
    gamemenu_minesweeper.o(i.Minesweeper_Down) refers to gamemenu_minesweeper.o(.bss) for Game
    gamemenu_minesweeper.o(i.Minesweeper_Init) refers to gamemenu_minesweeper.o(i.Minesweeper_CreateMine) for Minesweeper_CreateMine
    gamemenu_minesweeper.o(i.Minesweeper_Init) refers to stm32f10x_rtc.o(i.RTC_GetCounter) for RTC_GetCounter
    gamemenu_minesweeper.o(i.Minesweeper_Init) refers to gamemenu_minesweeper.o(.bss) for Game
    gamemenu_minesweeper.o(i.Minesweeper_Left) refers to gamemenu_minesweeper.o(.bss) for Game
    gamemenu_minesweeper.o(i.Minesweeper_Loop) refers to oled.o(i.OLED_ReverseArea) for OLED_ReverseArea
    gamemenu_minesweeper.o(i.Minesweeper_Loop) refers to oled.o(i.OLED_UpdateArea) for OLED_UpdateArea
    gamemenu_minesweeper.o(i.Minesweeper_Loop) refers to gamemenu_minesweeper.o(.bss) for Game
    gamemenu_minesweeper.o(i.Minesweeper_NearbyMineNum) refers to gamemenu_minesweeper.o(.bss) for Game
    gamemenu_minesweeper.o(i.Minesweeper_Right) refers to gamemenu_minesweeper.o(.bss) for Game
    gamemenu_minesweeper.o(i.Minesweeper_Save) refers to stm32f10x_rtc.o(i.RTC_GetCounter) for RTC_GetCounter
    gamemenu_minesweeper.o(i.Minesweeper_Save) refers to store.o(i.Store_Save) for Store_Save
    gamemenu_minesweeper.o(i.Minesweeper_Save) refers to gamemenu_minesweeper.o(.bss) for Game
    gamemenu_minesweeper.o(i.Minesweeper_Save) refers to store.o(.bss) for Store_Data
    gamemenu_minesweeper.o(i.Minesweeper_ShowAllMine) refers to gamemenu_minesweeper.o(.bss) for Game
    gamemenu_minesweeper.o(i.Minesweeper_Sweep) refers to gamemenu_minesweeper.o(i.Minesweeper_ShowAllMine) for Minesweeper_ShowAllMine
    gamemenu_minesweeper.o(i.Minesweeper_Sweep) refers to gamemenu_minesweeper.o(i.Minesweeper_Display) for Minesweeper_Display
    gamemenu_minesweeper.o(i.Minesweeper_Sweep) refers to delay.o(i.Delay_ms) for Delay_ms
    gamemenu_minesweeper.o(i.Minesweeper_Sweep) refers to timer.o(i.Timer_Stop) for Timer_Stop
    gamemenu_minesweeper.o(i.Minesweeper_Sweep) refers to gamemenu_minesweeper.o(i.GameMenu_Minesweeper_View_MAIN) for GameMenu_Minesweeper_View_MAIN
    gamemenu_minesweeper.o(i.Minesweeper_Sweep) refers to gamemenu_minesweeper.o(i.Minesweeper_ClearArea) for Minesweeper_ClearArea
    gamemenu_minesweeper.o(i.Minesweeper_Sweep) refers to gamemenu_minesweeper.o(i.Minesweeper_isWin) for Minesweeper_isWin
    gamemenu_minesweeper.o(i.Minesweeper_Sweep) refers to gamemenu_minesweeper.o(i.Minesweeper_Save) for Minesweeper_Save
    gamemenu_minesweeper.o(i.Minesweeper_Sweep) refers to gamemenu_minesweeper.o(.bss) for Game
    gamemenu_minesweeper.o(i.Minesweeper_Sweep) refers to gamemenu_minesweeper.o(i.Minesweeper_Loop) for Minesweeper_Loop
    gamemenu_minesweeper.o(i.Minesweeper_Sweep) refers to gamemenu_minesweeper.o(.data) for Status
    gamemenu_minesweeper.o(i.Minesweeper_Up) refers to gamemenu_minesweeper.o(.bss) for Game
    gamemenu_minesweeper.o(i.Minesweeper_isWin) refers to gamemenu_minesweeper.o(.bss) for Game
    gamemenu_minesweeper.o(.data) refers to gamemenu_minesweeper.o(.conststring) for .conststring
    gamemenu_snake.o(i.GameMenu_Snake_Funsion) refers to gamemenu_snake.o(i.GameMenu_Snake_View_MAIN) for GameMenu_Snake_View_MAIN
    gamemenu_snake.o(i.GameMenu_Snake_Funsion) refers to timer.o(i.Timer_AddFunction) for Timer_AddFunction
    gamemenu_snake.o(i.GameMenu_Snake_Funsion) refers to message.o(i.MSG_GetMessage) for MSG_GetMessage
    gamemenu_snake.o(i.GameMenu_Snake_Funsion) refers to gamemenu_snake.o(i.Snake_Init) for Snake_Init
    gamemenu_snake.o(i.GameMenu_Snake_Funsion) refers to timer.o(i.Timer_SetTarget) for Timer_SetTarget
    gamemenu_snake.o(i.GameMenu_Snake_Funsion) refers to timer.o(i.Timer_Start) for Timer_Start
    gamemenu_snake.o(i.GameMenu_Snake_Funsion) refers to timer.o(i.Timer_Stop) for Timer_Stop
    gamemenu_snake.o(i.GameMenu_Snake_Funsion) refers to gamemenu_snake.o(i.Snake_Left) for Snake_Left
    gamemenu_snake.o(i.GameMenu_Snake_Funsion) refers to gamemenu_snake.o(i.Snake_Display) for Snake_Display
    gamemenu_snake.o(i.GameMenu_Snake_Funsion) refers to timer.o(i.Timer_DeleteFunction) for Timer_DeleteFunction
    gamemenu_snake.o(i.GameMenu_Snake_Funsion) refers to gamemenu_snake.o(i.Snake_Right) for Snake_Right
    gamemenu_snake.o(i.GameMenu_Snake_Funsion) refers to gamemenu_snake.o(i.Snake_Save) for Snake_Save
    gamemenu_snake.o(i.GameMenu_Snake_Funsion) refers to gamemenu_snake.o(i.GameMenu_Snake_View_RECORD) for GameMenu_Snake_View_RECORD
    gamemenu_snake.o(i.GameMenu_Snake_Funsion) refers to gamemenu_snake.o(i.GameMenu_Snake_View_HELP) for GameMenu_Snake_View_HELP
    gamemenu_snake.o(i.GameMenu_Snake_Funsion) refers to gamemenu_snake.o(i.GameMenu_Snake_View_PAUSE) for GameMenu_Snake_View_PAUSE
    gamemenu_snake.o(i.GameMenu_Snake_Funsion) refers to msg.o(i.MSG_DefaultProc) for MSG_DefaultProc
    gamemenu_snake.o(i.GameMenu_Snake_Funsion) refers to gamemenu_snake.o(.data) for Status
    gamemenu_snake.o(i.GameMenu_Snake_Funsion) refers to gamemenu_snake.o(i.Snake_Loop) for Snake_Loop
    gamemenu_snake.o(i.GameMenu_Snake_Init) refers to menu.o(i.Menu_Init) for Menu_Init
    gamemenu_snake.o(i.GameMenu_Snake_Init) refers to store.o(i.Store_Init) for Store_Init
    gamemenu_snake.o(i.GameMenu_Snake_Init) refers to myrtc.o(i.MyRTC_Init) for MyRTC_Init
    gamemenu_snake.o(i.GameMenu_Snake_Init) refers to key.o(i.Key_Init) for Key_Init
    gamemenu_snake.o(i.GameMenu_Snake_Init) refers to encoder.o(i.Encoder_Init) for Encoder_Init
    gamemenu_snake.o(i.GameMenu_Snake_Init) refers to stm32f10x_rtc.o(i.RTC_GetCounter) for RTC_GetCounter
    gamemenu_snake.o(i.GameMenu_Snake_Init) refers to rand.o(.text) for srand
    gamemenu_snake.o(i.GameMenu_Snake_Init) refers to gamemenu_snake.o(.bss) for GameMenu_Snake
    gamemenu_snake.o(i.GameMenu_Snake_Init) refers to gamemenu_snake.o(i.GameMenu_Snake_Funsion) for GameMenu_Snake_Funsion
    gamemenu_snake.o(i.GameMenu_Snake_Init) refers to gamemenu_snake.o(.constdata) for GameMenu_Snake_Icon
    gamemenu_snake.o(i.GameMenu_Snake_Init) refers to gamemenu_snake.o(.data) for GameMenu_Snake_Name
    gamemenu_snake.o(i.GameMenu_Snake_View_HELP) refers to oled.o(i.OLED_Clear) for OLED_Clear
    gamemenu_snake.o(i.GameMenu_Snake_View_HELP) refers to oled.o(i.OLED_ShowChinese) for OLED_ShowChinese
    gamemenu_snake.o(i.GameMenu_Snake_View_HELP) refers to oled.o(i.OLED_Update) for OLED_Update
    gamemenu_snake.o(i.GameMenu_Snake_View_MAIN) refers to oled.o(i.OLED_Clear) for OLED_Clear
    gamemenu_snake.o(i.GameMenu_Snake_View_MAIN) refers to oled.o(i.OLED_ShowImage) for OLED_ShowImage
    gamemenu_snake.o(i.GameMenu_Snake_View_MAIN) refers to oled.o(i.OLED_ShowChinese) for OLED_ShowChinese
    gamemenu_snake.o(i.GameMenu_Snake_View_MAIN) refers to oled.o(i.OLED_Update) for OLED_Update
    gamemenu_snake.o(i.GameMenu_Snake_View_MAIN) refers to oled_data.o(.constdata) for Button
    gamemenu_snake.o(i.GameMenu_Snake_View_PAUSE) refers to oled.o(i.OLED_Clear) for OLED_Clear
    gamemenu_snake.o(i.GameMenu_Snake_View_PAUSE) refers to oled.o(i.OLED_ShowImage) for OLED_ShowImage
    gamemenu_snake.o(i.GameMenu_Snake_View_PAUSE) refers to oled.o(i.OLED_ShowChinese) for OLED_ShowChinese
    gamemenu_snake.o(i.GameMenu_Snake_View_PAUSE) refers to oled.o(i.OLED_Update) for OLED_Update
    gamemenu_snake.o(i.GameMenu_Snake_View_PAUSE) refers to oled_data.o(.constdata) for Button
    gamemenu_snake.o(i.GameMenu_Snake_View_RECORD) refers to oled.o(i.OLED_Clear) for OLED_Clear
    gamemenu_snake.o(i.GameMenu_Snake_View_RECORD) refers to oled.o(i.OLED_Printf) for OLED_Printf
    gamemenu_snake.o(i.GameMenu_Snake_View_RECORD) refers to oled.o(i.OLED_Update) for OLED_Update
    gamemenu_snake.o(i.GameMenu_Snake_View_RECORD) refers to store.o(.bss) for Store_Data
    gamemenu_snake.o(i.Snake_CreateFood) refers to rand.o(.emb_text) for rand
    gamemenu_snake.o(i.Snake_CreateFood) refers to gamemenu_snake.o(.bss) for Game
    gamemenu_snake.o(i.Snake_Display) refers to oled.o(i.OLED_Clear) for OLED_Clear
    gamemenu_snake.o(i.Snake_Display) refers to oled.o(i.OLED_Printf) for OLED_Printf
    gamemenu_snake.o(i.Snake_Display) refers to oled.o(i.OLED_DrawLine) for OLED_DrawLine
    gamemenu_snake.o(i.Snake_Display) refers to oled.o(i.OLED_ShowImage) for OLED_ShowImage
    gamemenu_snake.o(i.Snake_Display) refers to oled.o(i.OLED_DrawRectangle) for OLED_DrawRectangle
    gamemenu_snake.o(i.Snake_Display) refers to oled.o(i.OLED_Update) for OLED_Update
    gamemenu_snake.o(i.Snake_Display) refers to gamemenu_snake.o(.bss) for Game
    gamemenu_snake.o(i.Snake_Display) refers to gamemenu_snake.o(.constdata) for HeadImage
    gamemenu_snake.o(i.Snake_Init) refers to gamemenu_snake.o(i.Snake_CreateFood) for Snake_CreateFood
    gamemenu_snake.o(i.Snake_Init) refers to gamemenu_snake.o(.bss) for Game
    gamemenu_snake.o(i.Snake_Left) refers to gamemenu_snake.o(.bss) for Game
    gamemenu_snake.o(i.Snake_Loop) refers to timer.o(i.Timer_Stop) for Timer_Stop
    gamemenu_snake.o(i.Snake_Loop) refers to gamemenu_snake.o(i.Snake_Save) for Snake_Save
    gamemenu_snake.o(i.Snake_Loop) refers to gamemenu_snake.o(i.GameMenu_Snake_View_MAIN) for GameMenu_Snake_View_MAIN
    gamemenu_snake.o(i.Snake_Loop) refers to timer.o(i.Timer_SetCount) for Timer_SetCount
    gamemenu_snake.o(i.Snake_Loop) refers to dflt_clz.o(x$fpl$dfltu) for __aeabi_ui2d
    gamemenu_snake.o(i.Snake_Loop) refers to ddiv.o(x$fpl$ddiv) for __aeabi_ddiv
    gamemenu_snake.o(i.Snake_Loop) refers to dmul.o(x$fpl$dmul) for __aeabi_dmul
    gamemenu_snake.o(i.Snake_Loop) refers to daddsub_clz.o(x$fpl$drsb) for __aeabi_drsub
    gamemenu_snake.o(i.Snake_Loop) refers to dfixu.o(x$fpl$dfixu) for __aeabi_d2uiz
    gamemenu_snake.o(i.Snake_Loop) refers to timer.o(i.Timer_SetTarget) for Timer_SetTarget
    gamemenu_snake.o(i.Snake_Loop) refers to timer.o(i.Timer_Start) for Timer_Start
    gamemenu_snake.o(i.Snake_Loop) refers to gamemenu_snake.o(i.Snake_CreateFood) for Snake_CreateFood
    gamemenu_snake.o(i.Snake_Loop) refers to gamemenu_snake.o(i.Snake_Display) for Snake_Display
    gamemenu_snake.o(i.Snake_Loop) refers to gamemenu_snake.o(.bss) for Game
    gamemenu_snake.o(i.Snake_Loop) refers to gamemenu_snake.o(.data) for Status
    gamemenu_snake.o(i.Snake_Right) refers to gamemenu_snake.o(.bss) for Game
    gamemenu_snake.o(i.Snake_Save) refers to store.o(i.Store_Save) for Store_Save
    gamemenu_snake.o(i.Snake_Save) refers to gamemenu_snake.o(.bss) for Game
    gamemenu_snake.o(i.Snake_Save) refers to store.o(.bss) for Store_Data
    gamemenu_snake.o(.data) refers to gamemenu_snake.o(.conststring) for .conststring
    gamemenu_tetris.o(i.GameMenu_Tetris_Funsion) refers to gamemenu_tetris.o(i.GameMenu_Tetris_View_MAIN) for GameMenu_Tetris_View_MAIN
    gamemenu_tetris.o(i.GameMenu_Tetris_Funsion) refers to timer.o(i.Timer_AddFunction) for Timer_AddFunction
    gamemenu_tetris.o(i.GameMenu_Tetris_Funsion) refers to message.o(i.MSG_GetMessage) for MSG_GetMessage
    gamemenu_tetris.o(i.GameMenu_Tetris_Funsion) refers to gamemenu_tetris.o(i.Tetris_Init) for Tetris_Init
    gamemenu_tetris.o(i.GameMenu_Tetris_Funsion) refers to timer.o(i.Timer_SetTarget) for Timer_SetTarget
    gamemenu_tetris.o(i.GameMenu_Tetris_Funsion) refers to timer.o(i.Timer_Start) for Timer_Start
    gamemenu_tetris.o(i.GameMenu_Tetris_Funsion) refers to timer.o(i.Timer_Stop) for Timer_Stop
    gamemenu_tetris.o(i.GameMenu_Tetris_Funsion) refers to gamemenu_tetris.o(i.Tetris_Left) for Tetris_Left
    gamemenu_tetris.o(i.GameMenu_Tetris_Funsion) refers to gamemenu_tetris.o(i.Tetris_Display) for Tetris_Display
    gamemenu_tetris.o(i.GameMenu_Tetris_Funsion) refers to timer.o(i.Timer_DeleteFunction) for Timer_DeleteFunction
    gamemenu_tetris.o(i.GameMenu_Tetris_Funsion) refers to gamemenu_tetris.o(i.Tetris_Right) for Tetris_Right
    gamemenu_tetris.o(i.GameMenu_Tetris_Funsion) refers to gamemenu_tetris.o(i.Tetris_Save) for Tetris_Save
    gamemenu_tetris.o(i.GameMenu_Tetris_Funsion) refers to gamemenu_tetris.o(i.GameMenu_Tetris_View_RECORD) for GameMenu_Tetris_View_RECORD
    gamemenu_tetris.o(i.GameMenu_Tetris_Funsion) refers to gamemenu_tetris.o(i.Tetris_Hitbottom) for Tetris_Hitbottom
    gamemenu_tetris.o(i.GameMenu_Tetris_Funsion) refers to gamemenu_tetris.o(i.GameMenu_Tetris_View_HELP) for GameMenu_Tetris_View_HELP
    gamemenu_tetris.o(i.GameMenu_Tetris_Funsion) refers to gamemenu_tetris.o(i.GameMenu_Tetris_View_PAUSE) for GameMenu_Tetris_View_PAUSE
    gamemenu_tetris.o(i.GameMenu_Tetris_Funsion) refers to gamemenu_tetris.o(i.Tetris_RtRight) for Tetris_RtRight
    gamemenu_tetris.o(i.GameMenu_Tetris_Funsion) refers to gamemenu_tetris.o(i.Tetris_RtLeft) for Tetris_RtLeft
    gamemenu_tetris.o(i.GameMenu_Tetris_Funsion) refers to msg.o(i.MSG_DefaultProc) for MSG_DefaultProc
    gamemenu_tetris.o(i.GameMenu_Tetris_Funsion) refers to gamemenu_tetris.o(.data) for Status
    gamemenu_tetris.o(i.GameMenu_Tetris_Funsion) refers to gamemenu_tetris.o(i.Tetris_Loop) for Tetris_Loop
    gamemenu_tetris.o(i.GameMenu_Tetris_Init) refers to menu.o(i.Menu_Init) for Menu_Init
    gamemenu_tetris.o(i.GameMenu_Tetris_Init) refers to store.o(i.Store_Init) for Store_Init
    gamemenu_tetris.o(i.GameMenu_Tetris_Init) refers to key.o(i.Key_Init) for Key_Init
    gamemenu_tetris.o(i.GameMenu_Tetris_Init) refers to encoder.o(i.Encoder_Init) for Encoder_Init
    gamemenu_tetris.o(i.GameMenu_Tetris_Init) refers to gamemenu_tetris.o(.bss) for GameMenu_Tetris
    gamemenu_tetris.o(i.GameMenu_Tetris_Init) refers to gamemenu_tetris.o(i.GameMenu_Tetris_Funsion) for GameMenu_Tetris_Funsion
    gamemenu_tetris.o(i.GameMenu_Tetris_Init) refers to gamemenu_tetris.o(.constdata) for GameMenu_Tetris_Icon
    gamemenu_tetris.o(i.GameMenu_Tetris_Init) refers to gamemenu_tetris.o(.data) for GameMenu_Tetris_Name
    gamemenu_tetris.o(i.GameMenu_Tetris_View_HELP) refers to oled.o(i.OLED_Clear) for OLED_Clear
    gamemenu_tetris.o(i.GameMenu_Tetris_View_HELP) refers to oled.o(i.OLED_ShowChinese) for OLED_ShowChinese
    gamemenu_tetris.o(i.GameMenu_Tetris_View_HELP) refers to oled.o(i.OLED_Update) for OLED_Update
    gamemenu_tetris.o(i.GameMenu_Tetris_View_MAIN) refers to oled.o(i.OLED_Clear) for OLED_Clear
    gamemenu_tetris.o(i.GameMenu_Tetris_View_MAIN) refers to oled.o(i.OLED_ShowImage) for OLED_ShowImage
    gamemenu_tetris.o(i.GameMenu_Tetris_View_MAIN) refers to oled.o(i.OLED_ShowChinese) for OLED_ShowChinese
    gamemenu_tetris.o(i.GameMenu_Tetris_View_MAIN) refers to oled.o(i.OLED_Update) for OLED_Update
    gamemenu_tetris.o(i.GameMenu_Tetris_View_MAIN) refers to oled_data.o(.constdata) for Button
    gamemenu_tetris.o(i.GameMenu_Tetris_View_PAUSE) refers to oled.o(i.OLED_Clear) for OLED_Clear
    gamemenu_tetris.o(i.GameMenu_Tetris_View_PAUSE) refers to oled.o(i.OLED_ShowImage) for OLED_ShowImage
    gamemenu_tetris.o(i.GameMenu_Tetris_View_PAUSE) refers to oled.o(i.OLED_ShowChinese) for OLED_ShowChinese
    gamemenu_tetris.o(i.GameMenu_Tetris_View_PAUSE) refers to oled.o(i.OLED_Update) for OLED_Update
    gamemenu_tetris.o(i.GameMenu_Tetris_View_PAUSE) refers to oled_data.o(.constdata) for Button
    gamemenu_tetris.o(i.GameMenu_Tetris_View_RECORD) refers to oled.o(i.OLED_Clear) for OLED_Clear
    gamemenu_tetris.o(i.GameMenu_Tetris_View_RECORD) refers to oled.o(i.OLED_Printf) for OLED_Printf
    gamemenu_tetris.o(i.GameMenu_Tetris_View_RECORD) refers to oled.o(i.OLED_Update) for OLED_Update
    gamemenu_tetris.o(i.GameMenu_Tetris_View_RECORD) refers to store.o(.bss) for Store_Data
    gamemenu_tetris.o(i.Tetris_Create) refers to gamemenu_tetris.o(.data) for Game
    gamemenu_tetris.o(i.Tetris_Create) refers to gamemenu_tetris.o(.constdata) for Data
    gamemenu_tetris.o(i.Tetris_Display) refers to oled.o(i.OLED_Clear) for OLED_Clear
    gamemenu_tetris.o(i.Tetris_Display) refers to oled.o(i.OLED_DrawLine) for OLED_DrawLine
    gamemenu_tetris.o(i.Tetris_Display) refers to oled.o(i.OLED_ShowImage) for OLED_ShowImage
    gamemenu_tetris.o(i.Tetris_Display) refers to fflt_clz.o(x$fpl$fflt) for __aeabi_i2f
    gamemenu_tetris.o(i.Tetris_Display) refers to gamemenu_tetris.o(i.Tetris_Pow) for Tetris_Pow
    gamemenu_tetris.o(i.Tetris_Display) refers to ffixu.o(x$fpl$ffixu) for __aeabi_f2uiz
    gamemenu_tetris.o(i.Tetris_Display) refers to gamemenu_tetris.o(i.Tetris_DistanceToBottom) for Tetris_DistanceToBottom
    gamemenu_tetris.o(i.Tetris_Display) refers to oled.o(i.OLED_DrawRectangle) for OLED_DrawRectangle
    gamemenu_tetris.o(i.Tetris_Display) refers to oled.o(i.OLED_Update) for OLED_Update
    gamemenu_tetris.o(i.Tetris_Display) refers to gamemenu_tetris.o(.constdata) for Tetris_ScoreImage
    gamemenu_tetris.o(i.Tetris_Display) refers to gamemenu_tetris.o(.data) for Game
    gamemenu_tetris.o(i.Tetris_Display) refers to gamemenu_tetris.o(.bss) for ball
    gamemenu_tetris.o(i.Tetris_DistanceToBottom) refers to gamemenu_tetris.o(.data) for fall
    gamemenu_tetris.o(i.Tetris_DistanceToBottom) refers to gamemenu_tetris.o(.bss) for ball
    gamemenu_tetris.o(i.Tetris_Fall) refers to gamemenu_tetris.o(.data) for fall
    gamemenu_tetris.o(i.Tetris_Fall) refers to gamemenu_tetris.o(.bss) for ball
    gamemenu_tetris.o(i.Tetris_Full) refers to fflt_clz.o(x$fpl$ffltu) for __aeabi_ui2f
    gamemenu_tetris.o(i.Tetris_Full) refers to gamemenu_tetris.o(i.Tetris_Pow) for Tetris_Pow
    gamemenu_tetris.o(i.Tetris_Full) refers to fmul.o(x$fpl$fmul) for __aeabi_fmul
    gamemenu_tetris.o(i.Tetris_Full) refers to faddsub_clz.o(x$fpl$fadd) for __aeabi_fadd
    gamemenu_tetris.o(i.Tetris_Full) refers to ffixu.o(x$fpl$ffixu) for __aeabi_f2uiz
    gamemenu_tetris.o(i.Tetris_Full) refers to gamemenu_tetris.o(.bss) for ball
    gamemenu_tetris.o(i.Tetris_Full) refers to gamemenu_tetris.o(.data) for Game
    gamemenu_tetris.o(i.Tetris_GameOver) refers to gamemenu_tetris.o(.bss) for ball
    gamemenu_tetris.o(i.Tetris_Hitbottom) refers to gamemenu_tetris.o(i.Tetris_DistanceToBottom) for Tetris_DistanceToBottom
    gamemenu_tetris.o(i.Tetris_Hitbottom) refers to gamemenu_tetris.o(.data) for Game
    gamemenu_tetris.o(i.Tetris_Init) refers to gamemenu_tetris.o(i.Tetris_Create) for Tetris_Create
    gamemenu_tetris.o(i.Tetris_Init) refers to gamemenu_tetris.o(.bss) for ball
    gamemenu_tetris.o(i.Tetris_Init) refers to gamemenu_tetris.o(.data) for Game
    gamemenu_tetris.o(i.Tetris_Left) refers to gamemenu_tetris.o(.data) for Game
    gamemenu_tetris.o(i.Tetris_Left) refers to gamemenu_tetris.o(.bss) for ball
    gamemenu_tetris.o(i.Tetris_Loop) refers to gamemenu_tetris.o(i.Tetris_Fall) for Tetris_Fall
    gamemenu_tetris.o(i.Tetris_Loop) refers to gamemenu_tetris.o(i.Tetris_Stack) for Tetris_Stack
    gamemenu_tetris.o(i.Tetris_Loop) refers to gamemenu_tetris.o(i.Tetris_GameOver) for Tetris_GameOver
    gamemenu_tetris.o(i.Tetris_Loop) refers to timer.o(i.Timer_Stop) for Timer_Stop
    gamemenu_tetris.o(i.Tetris_Loop) refers to gamemenu_tetris.o(i.Tetris_Save) for Tetris_Save
    gamemenu_tetris.o(i.Tetris_Loop) refers to gamemenu_tetris.o(i.GameMenu_Tetris_View_MAIN) for GameMenu_Tetris_View_MAIN
    gamemenu_tetris.o(i.Tetris_Loop) refers to gamemenu_tetris.o(i.Tetris_Full) for Tetris_Full
    gamemenu_tetris.o(i.Tetris_Loop) refers to timer.o(i.Timer_SetCount) for Timer_SetCount
    gamemenu_tetris.o(i.Tetris_Loop) refers to dflt_clz.o(x$fpl$dfltu) for __aeabi_ui2d
    gamemenu_tetris.o(i.Tetris_Loop) refers to ddiv.o(x$fpl$ddiv) for __aeabi_ddiv
    gamemenu_tetris.o(i.Tetris_Loop) refers to dmul.o(x$fpl$dmul) for __aeabi_dmul
    gamemenu_tetris.o(i.Tetris_Loop) refers to daddsub_clz.o(x$fpl$drsb) for __aeabi_drsub
    gamemenu_tetris.o(i.Tetris_Loop) refers to dfixu.o(x$fpl$dfixu) for __aeabi_d2uiz
    gamemenu_tetris.o(i.Tetris_Loop) refers to timer.o(i.Timer_SetTarget) for Timer_SetTarget
    gamemenu_tetris.o(i.Tetris_Loop) refers to timer.o(i.Timer_Start) for Timer_Start
    gamemenu_tetris.o(i.Tetris_Loop) refers to gamemenu_tetris.o(i.Tetris_Create) for Tetris_Create
    gamemenu_tetris.o(i.Tetris_Loop) refers to gamemenu_tetris.o(i.Tetris_Display) for Tetris_Display
    gamemenu_tetris.o(i.Tetris_Loop) refers to gamemenu_tetris.o(.data) for Status
    gamemenu_tetris.o(i.Tetris_Pow) refers to fmul.o(x$fpl$fmul) for __aeabi_fmul
    gamemenu_tetris.o(i.Tetris_Pow) refers to faddsub_clz.o(x$fpl$fsub) for __aeabi_fsub
    gamemenu_tetris.o(i.Tetris_Pow) refers to feqf.o(x$fpl$feqf) for __aeabi_cfcmpeq
    gamemenu_tetris.o(i.Tetris_Right) refers to gamemenu_tetris.o(.data) for Game
    gamemenu_tetris.o(i.Tetris_Right) refers to gamemenu_tetris.o(.bss) for ball
    gamemenu_tetris.o(i.Tetris_RtLeft) refers to gamemenu_tetris.o(.data) for Game
    gamemenu_tetris.o(i.Tetris_RtLeft) refers to gamemenu_tetris.o(.constdata) for Data
    gamemenu_tetris.o(i.Tetris_RtLeft) refers to gamemenu_tetris.o(.bss) for ball
    gamemenu_tetris.o(i.Tetris_RtRight) refers to gamemenu_tetris.o(.data) for Game
    gamemenu_tetris.o(i.Tetris_RtRight) refers to gamemenu_tetris.o(.constdata) for Data
    gamemenu_tetris.o(i.Tetris_RtRight) refers to gamemenu_tetris.o(.bss) for ball
    gamemenu_tetris.o(i.Tetris_Save) refers to store.o(i.Store_Save) for Store_Save
    gamemenu_tetris.o(i.Tetris_Save) refers to gamemenu_tetris.o(.data) for Game
    gamemenu_tetris.o(i.Tetris_Save) refers to store.o(.bss) for Store_Data
    gamemenu_tetris.o(i.Tetris_Stack) refers to gamemenu_tetris.o(.data) for Game
    gamemenu_tetris.o(i.Tetris_Stack) refers to gamemenu_tetris.o(.bss) for ball
    gamemenu_tetris.o(.data) refers to gamemenu_tetris.o(.conststring) for .conststring
    settingmenu.o(i.SettingMenu_Init) refers to menu.o(i.Menu_Init) for Menu_Init
    settingmenu.o(i.SettingMenu_Init) refers to settingmenu.o(.bss) for SettingMenu
    settingmenu.o(i.SettingMenu_Init) refers to settingmenu.o(i.SettingMenu_Funsion) for SettingMenu_Funsion
    settingmenu.o(i.SettingMenu_Init) refers to settingmenu.o(.constdata) for SettingMenu_Icon
    settingmenu.o(i.SettingMenu_Init) refers to settingmenu.o(.data) for SettingMenu_Name
    settingmenu.o(.data) refers to settingmenu.o(.conststring) for .conststring
    textmenu.o(i.TextMenu_Init) refers to menu.o(i.Menu_Init) for Menu_Init
    textmenu.o(i.TextMenu_Init) refers to textmenu_create.o(i.TextMenu_Create_Init) for TextMenu_Create_Init
    textmenu.o(i.TextMenu_Init) refers to textmenu_read.o(i.TextMenu_Read_Init) for TextMenu_Read_Init
    textmenu.o(i.TextMenu_Init) refers to textmenu_delete.o(i.TextMenu_Delete_Init) for TextMenu_Delete_Init
    textmenu.o(i.TextMenu_Init) refers to menu.o(i.Menu_SetFather) for Menu_SetFather
    textmenu.o(i.TextMenu_Init) refers to textmenu.o(.bss) for TextMenu
    textmenu.o(i.TextMenu_Init) refers to textmenu.o(i.TextMenu_Funsion) for TextMenu_Funsion
    textmenu.o(i.TextMenu_Init) refers to textmenu.o(.constdata) for TextMenu_Icon
    textmenu.o(i.TextMenu_Init) refers to textmenu.o(.data) for TextMenu_Name
    textmenu.o(i.TextMenu_Init) refers to textmenu_create.o(.bss) for TextMenu_Create
    textmenu.o(i.TextMenu_Init) refers to textmenu_read.o(.bss) for TextMenu_Read
    textmenu.o(i.TextMenu_Init) refers to textmenu_delete.o(.bss) for TextMenu_Delete
    textmenu.o(.data) refers to textmenu.o(.conststring) for .conststring
    textmenu_create.o(i.TextMenu_Create_Funsion) refers to rt_memclr_w.o(.text) for __aeabi_memclr4
    textmenu_create.o(i.TextMenu_Create_Funsion) refers to textmenu_create.o(i.TextMenu_Create_View_Warning) for TextMenu_Create_View_Warning
    textmenu_create.o(i.TextMenu_Create_Funsion) refers to delay.o(i.Delay_ms) for Delay_ms
    textmenu_create.o(i.TextMenu_Create_Funsion) refers to textmenu_create.o(i.TextMenu_Create_View_Status0) for TextMenu_Create_View_Status0
    textmenu_create.o(i.TextMenu_Create_Funsion) refers to message.o(i.MSG_GetMessage) for MSG_GetMessage
    textmenu_create.o(i.TextMenu_Create_Funsion) refers to oled.o(i.OLED_ShowChar) for OLED_ShowChar
    textmenu_create.o(i.TextMenu_Create_Funsion) refers to oled.o(i.OLED_DrawLine) for OLED_DrawLine
    textmenu_create.o(i.TextMenu_Create_Funsion) refers to textmenu_create.o(i.TextMenu_Create_View_Status1) for TextMenu_Create_View_Status1
    textmenu_create.o(i.TextMenu_Create_Funsion) refers to textmenu_create.o(i.TextMenu_Save) for TextMenu_Save
    textmenu_create.o(i.TextMenu_Create_Funsion) refers to textmenu_create.o(i.TextMenu_Create_View_Status2) for TextMenu_Create_View_Status2
    textmenu_create.o(i.TextMenu_Create_Funsion) refers to msg.o(i.MSG_DefaultProc) for MSG_DefaultProc
    textmenu_create.o(i.TextMenu_Create_Funsion) refers to oled.o(i.OLED_Update) for OLED_Update
    textmenu_create.o(i.TextMenu_Create_Funsion) refers to store.o(.bss) for Store_Data
    textmenu_create.o(i.TextMenu_Create_Init) refers to menu.o(i.Menu_Init) for Menu_Init
    textmenu_create.o(i.TextMenu_Create_Init) refers to store.o(i.Store_Init) for Store_Init
    textmenu_create.o(i.TextMenu_Create_Init) refers to key.o(i.Key_Init) for Key_Init
    textmenu_create.o(i.TextMenu_Create_Init) refers to encoder.o(i.Encoder_Init) for Encoder_Init
    textmenu_create.o(i.TextMenu_Create_Init) refers to textmenu_create.o(.bss) for TextMenu_Create
    textmenu_create.o(i.TextMenu_Create_Init) refers to textmenu_create.o(i.TextMenu_Create_Funsion) for TextMenu_Create_Funsion
    textmenu_create.o(i.TextMenu_Create_Init) refers to textmenu_create.o(.constdata) for TextMenu_Create_Icon
    textmenu_create.o(i.TextMenu_Create_Init) refers to textmenu_create.o(.data) for TextMenu_Create_Name
    textmenu_create.o(i.TextMenu_Create_View_Status0) refers to oled.o(i.OLED_Clear) for OLED_Clear
    textmenu_create.o(i.TextMenu_Create_View_Status0) refers to oled.o(i.OLED_ShowChinese) for OLED_ShowChinese
    textmenu_create.o(i.TextMenu_Create_View_Status0) refers to oled.o(i.OLED_ShowChar) for OLED_ShowChar
    textmenu_create.o(i.TextMenu_Create_View_Status0) refers to oled.o(i.OLED_DrawLine) for OLED_DrawLine
    textmenu_create.o(i.TextMenu_Create_View_Status0) refers to oled.o(i.OLED_Printf) for OLED_Printf
    textmenu_create.o(i.TextMenu_Create_View_Status0) refers to oled.o(i.OLED_ReverseArea) for OLED_ReverseArea
    textmenu_create.o(i.TextMenu_Create_View_Status0) refers to oled.o(i.OLED_Update) for OLED_Update
    textmenu_create.o(i.TextMenu_Create_View_Status1) refers to oled.o(i.OLED_Clear) for OLED_Clear
    textmenu_create.o(i.TextMenu_Create_View_Status1) refers to oled.o(i.OLED_ShowChinese) for OLED_ShowChinese
    textmenu_create.o(i.TextMenu_Create_View_Status1) refers to oled.o(i.OLED_ShowChar) for OLED_ShowChar
    textmenu_create.o(i.TextMenu_Create_View_Status1) refers to oled.o(i.OLED_DrawLine) for OLED_DrawLine
    textmenu_create.o(i.TextMenu_Create_View_Status1) refers to oled.o(i.OLED_Printf) for OLED_Printf
    textmenu_create.o(i.TextMenu_Create_View_Status1) refers to oled.o(i.OLED_ReverseArea) for OLED_ReverseArea
    textmenu_create.o(i.TextMenu_Create_View_Status1) refers to oled.o(i.OLED_Update) for OLED_Update
    textmenu_create.o(i.TextMenu_Create_View_Status2) refers to oled.o(i.OLED_Clear) for OLED_Clear
    textmenu_create.o(i.TextMenu_Create_View_Status2) refers to oled.o(i.OLED_ShowImage) for OLED_ShowImage
    textmenu_create.o(i.TextMenu_Create_View_Status2) refers to oled.o(i.OLED_ShowChinese) for OLED_ShowChinese
    textmenu_create.o(i.TextMenu_Create_View_Status2) refers to oled.o(i.OLED_Update) for OLED_Update
    textmenu_create.o(i.TextMenu_Create_View_Status2) refers to oled_data.o(.constdata) for Button
    textmenu_create.o(i.TextMenu_Create_View_Warning) refers to oled.o(i.OLED_Clear) for OLED_Clear
    textmenu_create.o(i.TextMenu_Create_View_Warning) refers to oled.o(i.OLED_ShowImage) for OLED_ShowImage
    textmenu_create.o(i.TextMenu_Create_View_Warning) refers to oled.o(i.OLED_ShowChinese) for OLED_ShowChinese
    textmenu_create.o(i.TextMenu_Create_View_Warning) refers to oled.o(i.OLED_Update) for OLED_Update
    textmenu_create.o(i.TextMenu_Create_View_Warning) refers to oled_data.o(.constdata) for Warning
    textmenu_create.o(i.TextMenu_Save) refers to store.o(i.Store_Save) for Store_Save
    textmenu_create.o(i.TextMenu_Save) refers to store.o(.bss) for Store_Data
    textmenu_create.o(.data) refers to textmenu_create.o(.conststring) for .conststring
    textmenu_delete.o(i.TextMenu_Delete_DeleteText) refers to store.o(i.Store_Save) for Store_Save
    textmenu_delete.o(i.TextMenu_Delete_DeleteText) refers to oled.o(i.OLED_Clear) for OLED_Clear
    textmenu_delete.o(i.TextMenu_Delete_DeleteText) refers to oled.o(i.OLED_ShowImage) for OLED_ShowImage
    textmenu_delete.o(i.TextMenu_Delete_DeleteText) refers to oled.o(i.OLED_ShowChinese) for OLED_ShowChinese
    textmenu_delete.o(i.TextMenu_Delete_DeleteText) refers to oled.o(i.OLED_Update) for OLED_Update
    textmenu_delete.o(i.TextMenu_Delete_DeleteText) refers to delay.o(i.Delay_ms) for Delay_ms
    textmenu_delete.o(i.TextMenu_Delete_DeleteText) refers to store.o(.bss) for Store_Data
    textmenu_delete.o(i.TextMenu_Delete_DeleteText) refers to oled_data.o(.constdata) for Pass
    textmenu_delete.o(i.TextMenu_Delete_Funsion) refers to textmenu_delete.o(i.TextMenu_Delete_View_Warning) for TextMenu_Delete_View_Warning
    textmenu_delete.o(i.TextMenu_Delete_Funsion) refers to delay.o(i.Delay_ms) for Delay_ms
    textmenu_delete.o(i.TextMenu_Delete_Funsion) refers to textmenu_delete.o(i.TextMenu_Delete_View_Status0) for TextMenu_Delete_View_Status0
    textmenu_delete.o(i.TextMenu_Delete_Funsion) refers to message.o(i.MSG_GetMessage) for MSG_GetMessage
    textmenu_delete.o(i.TextMenu_Delete_Funsion) refers to textmenu_delete.o(i.TextMenu_Delete_DeleteText) for TextMenu_Delete_DeleteText
    textmenu_delete.o(i.TextMenu_Delete_Funsion) refers to msg.o(i.MSG_DefaultProc) for MSG_DefaultProc
    textmenu_delete.o(i.TextMenu_Delete_Funsion) refers to store.o(.bss) for Store_Data
    textmenu_delete.o(i.TextMenu_Delete_Init) refers to menu.o(i.Menu_Init) for Menu_Init
    textmenu_delete.o(i.TextMenu_Delete_Init) refers to store.o(i.Store_Init) for Store_Init
    textmenu_delete.o(i.TextMenu_Delete_Init) refers to key.o(i.Key_Init) for Key_Init
    textmenu_delete.o(i.TextMenu_Delete_Init) refers to encoder.o(i.Encoder_Init) for Encoder_Init
    textmenu_delete.o(i.TextMenu_Delete_Init) refers to textmenu_delete.o(.bss) for TextMenu_Delete
    textmenu_delete.o(i.TextMenu_Delete_Init) refers to textmenu_delete.o(i.TextMenu_Delete_Funsion) for TextMenu_Delete_Funsion
    textmenu_delete.o(i.TextMenu_Delete_Init) refers to textmenu_delete.o(.constdata) for TextMenu_Delete_Icon
    textmenu_delete.o(i.TextMenu_Delete_Init) refers to textmenu_delete.o(.data) for TextMenu_Delete_Name
    textmenu_delete.o(i.TextMenu_Delete_View_Status0) refers to oled.o(i.OLED_Clear) for OLED_Clear
    textmenu_delete.o(i.TextMenu_Delete_View_Status0) refers to oled.o(i.OLED_ShowImage) for OLED_ShowImage
    textmenu_delete.o(i.TextMenu_Delete_View_Status0) refers to oled.o(i.OLED_ShowChinese) for OLED_ShowChinese
    textmenu_delete.o(i.TextMenu_Delete_View_Status0) refers to oled.o(i.OLED_Update) for OLED_Update
    textmenu_delete.o(i.TextMenu_Delete_View_Status0) refers to store.o(.bss) for Store_Data
    textmenu_delete.o(i.TextMenu_Delete_View_Status0) refers to oled_data.o(.constdata) for Button
    textmenu_delete.o(i.TextMenu_Delete_View_Warning) refers to oled.o(i.OLED_Clear) for OLED_Clear
    textmenu_delete.o(i.TextMenu_Delete_View_Warning) refers to oled.o(i.OLED_ShowImage) for OLED_ShowImage
    textmenu_delete.o(i.TextMenu_Delete_View_Warning) refers to oled.o(i.OLED_ShowChinese) for OLED_ShowChinese
    textmenu_delete.o(i.TextMenu_Delete_View_Warning) refers to oled.o(i.OLED_Update) for OLED_Update
    textmenu_delete.o(i.TextMenu_Delete_View_Warning) refers to oled_data.o(.constdata) for Warning
    textmenu_delete.o(.data) refers to textmenu_delete.o(.conststring) for .conststring
    textmenu_read.o(i.TextMenu_Read_DisplayText) refers to rt_memclr_w.o(.text) for __aeabi_memclr4
    textmenu_read.o(i.TextMenu_Read_DisplayText) refers to oled.o(i.OLED_Clear) for OLED_Clear
    textmenu_read.o(i.TextMenu_Read_DisplayText) refers to oled.o(i.OLED_ShowChar) for OLED_ShowChar
    textmenu_read.o(i.TextMenu_Read_DisplayText) refers to oled.o(i.OLED_DrawLine) for OLED_DrawLine
    textmenu_read.o(i.TextMenu_Read_DisplayText) refers to oled.o(i.OLED_Update) for OLED_Update
    textmenu_read.o(i.TextMenu_Read_DisplayText) refers to store.o(.bss) for Store_Data
    textmenu_read.o(i.TextMenu_Read_Funsion) refers to textmenu_read.o(i.TextMenu_Read_View_Warning) for TextMenu_Read_View_Warning
    textmenu_read.o(i.TextMenu_Read_Funsion) refers to delay.o(i.Delay_ms) for Delay_ms
    textmenu_read.o(i.TextMenu_Read_Funsion) refers to textmenu_read.o(i.TextMenu_Read_View_Status0) for TextMenu_Read_View_Status0
    textmenu_read.o(i.TextMenu_Read_Funsion) refers to message.o(i.MSG_GetMessage) for MSG_GetMessage
    textmenu_read.o(i.TextMenu_Read_Funsion) refers to textmenu_read.o(i.TextMenu_Read_DisplayText) for TextMenu_Read_DisplayText
    textmenu_read.o(i.TextMenu_Read_Funsion) refers to msg.o(i.MSG_DefaultProc) for MSG_DefaultProc
    textmenu_read.o(i.TextMenu_Read_Funsion) refers to oled.o(i.OLED_Update) for OLED_Update
    textmenu_read.o(i.TextMenu_Read_Funsion) refers to store.o(.bss) for Store_Data
    textmenu_read.o(i.TextMenu_Read_Init) refers to menu.o(i.Menu_Init) for Menu_Init
    textmenu_read.o(i.TextMenu_Read_Init) refers to store.o(i.Store_Init) for Store_Init
    textmenu_read.o(i.TextMenu_Read_Init) refers to key.o(i.Key_Init) for Key_Init
    textmenu_read.o(i.TextMenu_Read_Init) refers to encoder.o(i.Encoder_Init) for Encoder_Init
    textmenu_read.o(i.TextMenu_Read_Init) refers to textmenu_read.o(.bss) for TextMenu_Read
    textmenu_read.o(i.TextMenu_Read_Init) refers to textmenu_read.o(i.TextMenu_Read_Funsion) for TextMenu_Read_Funsion
    textmenu_read.o(i.TextMenu_Read_Init) refers to textmenu_read.o(.constdata) for TextMenu_Read_Icon
    textmenu_read.o(i.TextMenu_Read_Init) refers to textmenu_read.o(.data) for TextMenu_Read_Name
    textmenu_read.o(i.TextMenu_Read_View_Status0) refers to oled.o(i.OLED_Clear) for OLED_Clear
    textmenu_read.o(i.TextMenu_Read_View_Status0) refers to oled.o(i.OLED_ShowImage) for OLED_ShowImage
    textmenu_read.o(i.TextMenu_Read_View_Status0) refers to oled.o(i.OLED_ShowChinese) for OLED_ShowChinese
    textmenu_read.o(i.TextMenu_Read_View_Status0) refers to oled.o(i.OLED_Update) for OLED_Update
    textmenu_read.o(i.TextMenu_Read_View_Status0) refers to store.o(.bss) for Store_Data
    textmenu_read.o(i.TextMenu_Read_View_Status0) refers to oled_data.o(.constdata) for Button
    textmenu_read.o(i.TextMenu_Read_View_Warning) refers to oled.o(i.OLED_Clear) for OLED_Clear
    textmenu_read.o(i.TextMenu_Read_View_Warning) refers to oled.o(i.OLED_ShowImage) for OLED_ShowImage
    textmenu_read.o(i.TextMenu_Read_View_Warning) refers to oled.o(i.OLED_ShowChinese) for OLED_ShowChinese
    textmenu_read.o(i.TextMenu_Read_View_Warning) refers to oled.o(i.OLED_Update) for OLED_Update
    textmenu_read.o(i.TextMenu_Read_View_Warning) refers to oled_data.o(.constdata) for Warning
    textmenu_read.o(.data) refers to textmenu_read.o(.conststring) for .conststring
    clockmenu.o(i.ClockMenu_Init) refers to menu.o(i.Menu_Init) for Menu_Init
    clockmenu.o(i.ClockMenu_Init) refers to clockmenu_time.o(i.ClockMenu_Time_Init) for ClockMenu_Time_Init
    clockmenu.o(i.ClockMenu_Init) refers to clockmenu_setting.o(i.ClockMenu_Setting_Init) for ClockMenu_Setting_Init
    clockmenu.o(i.ClockMenu_Init) refers to clockmenu_alarm.o(i.ClockMenu_Alarm_Init) for ClockMenu_Alarm_Init
    clockmenu.o(i.ClockMenu_Init) refers to menu.o(i.Menu_SetFather) for Menu_SetFather
    clockmenu.o(i.ClockMenu_Init) refers to clockmenu.o(.bss) for ClockMenu
    clockmenu.o(i.ClockMenu_Init) refers to clockmenu.o(i.ClockMenu_Funsion) for ClockMenu_Funsion
    clockmenu.o(i.ClockMenu_Init) refers to clockmenu.o(.constdata) for ClockMenu_Icon
    clockmenu.o(i.ClockMenu_Init) refers to clockmenu.o(.data) for ClockMenu_Name
    clockmenu.o(i.ClockMenu_Init) refers to clockmenu_time.o(.bss) for ClockMenu_Time
    clockmenu.o(i.ClockMenu_Init) refers to clockmenu_alarm.o(.bss) for ClockMenu_Alarm
    clockmenu.o(i.ClockMenu_Init) refers to clockmenu_setting.o(.bss) for ClockMenu_Setting
    clockmenu.o(.data) refers to clockmenu.o(.conststring) for .conststring
    clockmenu_alarm.o(i.ClockMenu_Alarm_Funsion) refers to clockmenu_alarm.o(i.ClockMenu_Alarm_View_MAIN) for ClockMenu_Alarm_View_MAIN
    clockmenu_alarm.o(i.ClockMenu_Alarm_Funsion) refers to message.o(i.MSG_GetMessage) for MSG_GetMessage
    clockmenu_alarm.o(i.ClockMenu_Alarm_Funsion) refers to clockmenu_alarm.o(i.ClockMenu_Alarm_View_SETTING) for ClockMenu_Alarm_View_SETTING
    clockmenu_alarm.o(i.ClockMenu_Alarm_Funsion) refers to myrtc.o(i.MyRTC_TurnOnAlarm) for MyRTC_TurnOnAlarm
    clockmenu_alarm.o(i.ClockMenu_Alarm_Funsion) refers to clockmenu_alarm.o(i.ClockMenu_Alarm_View_SWITCH) for ClockMenu_Alarm_View_SWITCH
    clockmenu_alarm.o(i.ClockMenu_Alarm_Funsion) refers to myrtc.o(i.MyRTC_TurnOffAlarm) for MyRTC_TurnOffAlarm
    clockmenu_alarm.o(i.ClockMenu_Alarm_Funsion) refers to mktime.o(.text) for mktime
    clockmenu_alarm.o(i.ClockMenu_Alarm_Funsion) refers to myrtc.o(i.MyRTC_SetAlarm) for MyRTC_SetAlarm
    clockmenu_alarm.o(i.ClockMenu_Alarm_Funsion) refers to clockmenu_alarm.o(.data) for Status
    clockmenu_alarm.o(i.ClockMenu_Alarm_Funsion) refers to clockmenu_alarm.o(.bss) for Alarm
    clockmenu_alarm.o(i.ClockMenu_Alarm_Funsion) refers to msg.o(i.MSG_DefaultProc) for MSG_DefaultProc
    clockmenu_alarm.o(i.ClockMenu_Alarm_Init) refers to menu.o(i.Menu_Init) for Menu_Init
    clockmenu_alarm.o(i.ClockMenu_Alarm_Init) refers to key.o(i.Key_Init) for Key_Init
    clockmenu_alarm.o(i.ClockMenu_Alarm_Init) refers to encoder.o(i.Encoder_Init) for Encoder_Init
    clockmenu_alarm.o(i.ClockMenu_Alarm_Init) refers to myrtc.o(i.MyRTC_Init) for MyRTC_Init
    clockmenu_alarm.o(i.ClockMenu_Alarm_Init) refers to myrtc.o(i.MyRTC_ReadTime) for MyRTC_ReadTime
    clockmenu_alarm.o(i.ClockMenu_Alarm_Init) refers to clockmenu_alarm.o(.bss) for ClockMenu_Alarm
    clockmenu_alarm.o(i.ClockMenu_Alarm_Init) refers to clockmenu_alarm.o(i.ClockMenu_Alarm_Funsion) for ClockMenu_Alarm_Funsion
    clockmenu_alarm.o(i.ClockMenu_Alarm_Init) refers to clockmenu_alarm.o(.constdata) for ClockMenu_Alarm_Icon
    clockmenu_alarm.o(i.ClockMenu_Alarm_Init) refers to clockmenu_alarm.o(.data) for ClockMenu_Alarm_Name
    clockmenu_alarm.o(i.ClockMenu_Alarm_Init) refers to myrtc.o(.data) for MyRTC_Time
    clockmenu_alarm.o(i.ClockMenu_Alarm_View_MAIN) refers to oled.o(i.OLED_Clear) for OLED_Clear
    clockmenu_alarm.o(i.ClockMenu_Alarm_View_MAIN) refers to oled.o(i.OLED_ShowImage) for OLED_ShowImage
    clockmenu_alarm.o(i.ClockMenu_Alarm_View_MAIN) refers to oled.o(i.OLED_ShowChinese) for OLED_ShowChinese
    clockmenu_alarm.o(i.ClockMenu_Alarm_View_MAIN) refers to oled.o(i.OLED_Update) for OLED_Update
    clockmenu_alarm.o(i.ClockMenu_Alarm_View_MAIN) refers to oled_data.o(.constdata) for Button
    clockmenu_alarm.o(i.ClockMenu_Alarm_View_SETTING) refers to oled.o(i.OLED_Clear) for OLED_Clear
    clockmenu_alarm.o(i.ClockMenu_Alarm_View_SETTING) refers to oled.o(i.OLED_ShowChinese) for OLED_ShowChinese
    clockmenu_alarm.o(i.ClockMenu_Alarm_View_SETTING) refers to oled.o(i.OLED_Printf) for OLED_Printf
    clockmenu_alarm.o(i.ClockMenu_Alarm_View_SETTING) refers to oled.o(i.OLED_DrawRectangle) for OLED_DrawRectangle
    clockmenu_alarm.o(i.ClockMenu_Alarm_View_SETTING) refers to oled.o(i.OLED_Update) for OLED_Update
    clockmenu_alarm.o(i.ClockMenu_Alarm_View_SETTING) refers to clockmenu_alarm.o(.bss) for Alarm
    clockmenu_alarm.o(i.ClockMenu_Alarm_View_SWITCH) refers to oled.o(i.OLED_Clear) for OLED_Clear
    clockmenu_alarm.o(i.ClockMenu_Alarm_View_SWITCH) refers to oled.o(i.OLED_ShowImage) for OLED_ShowImage
    clockmenu_alarm.o(i.ClockMenu_Alarm_View_SWITCH) refers to oled.o(i.OLED_ShowChinese) for OLED_ShowChinese
    clockmenu_alarm.o(i.ClockMenu_Alarm_View_SWITCH) refers to oled.o(i.OLED_Update) for OLED_Update
    clockmenu_alarm.o(i.ClockMenu_Alarm_View_SWITCH) refers to oled_data.o(.constdata) for Button
    clockmenu_alarm.o(i.RTC_IRQHandler) refers to stm32f10x_rtc.o(i.RTC_GetITStatus) for RTC_GetITStatus
    clockmenu_alarm.o(i.RTC_IRQHandler) refers to stm32f10x_rtc.o(i.RTC_ClearITPendingBit) for RTC_ClearITPendingBit
    clockmenu_alarm.o(i.RTC_IRQHandler) refers to timer.o(i.Timer_StopAll) for Timer_StopAll
    clockmenu_alarm.o(i.RTC_IRQHandler) refers to stm32f10x_iwdg.o(i.IWDG_ReloadCounter) for IWDG_ReloadCounter
    clockmenu_alarm.o(i.RTC_IRQHandler) refers to message.o(i.MSG_GetMessage) for MSG_GetMessage
    clockmenu_alarm.o(i.RTC_IRQHandler) refers to timer.o(i.Timer_Start) for Timer_Start
    clockmenu_alarm.o(i.RTC_IRQHandler) refers to oled.o(i.OLED_CopyDisplayBuf) for OLED_CopyDisplayBuf
    clockmenu_alarm.o(i.RTC_IRQHandler) refers to oled.o(i.OLED_Clear) for OLED_Clear
    clockmenu_alarm.o(i.RTC_IRQHandler) refers to oled.o(i.OLED_ShowImage) for OLED_ShowImage
    clockmenu_alarm.o(i.RTC_IRQHandler) refers to oled.o(i.OLED_ShowChinese) for OLED_ShowChinese
    clockmenu_alarm.o(i.RTC_IRQHandler) refers to oled.o(i.OLED_Update) for OLED_Update
    clockmenu_alarm.o(i.RTC_IRQHandler) refers to msg.o(i.MSG_DefaultProc) for MSG_DefaultProc
    clockmenu_alarm.o(i.RTC_IRQHandler) refers to timer.o(i.Timer_StartAll) for Timer_StartAll
    clockmenu_alarm.o(i.RTC_IRQHandler) refers to key.o(i.Key_Loop) for Key_Loop
    clockmenu_alarm.o(i.RTC_IRQHandler) refers to encoder.o(i.Encoder_Loop) for Encoder_Loop
    clockmenu_alarm.o(i.RTC_IRQHandler) refers to oled_data.o(.constdata) for Warning
    clockmenu_alarm.o(.data) refers to clockmenu_alarm.o(.conststring) for .conststring
    clockmenu_setting.o(i.ClockMenu_Alarm_View_MAIN) refers to oled.o(i.OLED_Clear) for OLED_Clear
    clockmenu_setting.o(i.ClockMenu_Alarm_View_MAIN) refers to oled.o(i.OLED_ShowImage) for OLED_ShowImage
    clockmenu_setting.o(i.ClockMenu_Alarm_View_MAIN) refers to oled.o(i.OLED_ShowChinese) for OLED_ShowChinese
    clockmenu_setting.o(i.ClockMenu_Alarm_View_MAIN) refers to oled.o(i.OLED_Update) for OLED_Update
    clockmenu_setting.o(i.ClockMenu_Alarm_View_MAIN) refers to oled_data.o(.constdata) for Button
    clockmenu_setting.o(i.ClockMenu_Alarm_View_SETTING) refers to oled.o(i.OLED_Clear) for OLED_Clear
    clockmenu_setting.o(i.ClockMenu_Alarm_View_SETTING) refers to oled.o(i.OLED_ShowChinese) for OLED_ShowChinese
    clockmenu_setting.o(i.ClockMenu_Alarm_View_SETTING) refers to oled.o(i.OLED_Printf) for OLED_Printf
    clockmenu_setting.o(i.ClockMenu_Alarm_View_SETTING) refers to oled.o(i.OLED_DrawRectangle) for OLED_DrawRectangle
    clockmenu_setting.o(i.ClockMenu_Alarm_View_SETTING) refers to oled.o(i.OLED_Update) for OLED_Update
    clockmenu_setting.o(i.ClockMenu_Alarm_View_SETTING) refers to clockmenu_setting.o(.bss) for Clock
    clockmenu_setting.o(i.ClockMenu_Setting_Funsion) refers to clockmenu_setting.o(i.ClockMenu_Alarm_View_MAIN) for ClockMenu_Alarm_View_MAIN
    clockmenu_setting.o(i.ClockMenu_Setting_Funsion) refers to message.o(i.MSG_GetMessage) for MSG_GetMessage
    clockmenu_setting.o(i.ClockMenu_Setting_Funsion) refers to clockmenu_setting.o(i.ClockMenu_Alarm_View_SETTING) for ClockMenu_Alarm_View_SETTING
    clockmenu_setting.o(i.ClockMenu_Setting_Funsion) refers to mktime.o(.text) for mktime
    clockmenu_setting.o(i.ClockMenu_Setting_Funsion) refers to stm32f10x_rtc.o(i.RTC_SetCounter) for RTC_SetCounter
    clockmenu_setting.o(i.ClockMenu_Setting_Funsion) refers to clockmenu_setting.o(.data) for Status
    clockmenu_setting.o(i.ClockMenu_Setting_Funsion) refers to clockmenu_setting.o(.bss) for Clock
    clockmenu_setting.o(i.ClockMenu_Setting_Funsion) refers to msg.o(i.MSG_DefaultProc) for MSG_DefaultProc
    clockmenu_setting.o(i.ClockMenu_Setting_Init) refers to menu.o(i.Menu_Init) for Menu_Init
    clockmenu_setting.o(i.ClockMenu_Setting_Init) refers to key.o(i.Key_Init) for Key_Init
    clockmenu_setting.o(i.ClockMenu_Setting_Init) refers to encoder.o(i.Encoder_Init) for Encoder_Init
    clockmenu_setting.o(i.ClockMenu_Setting_Init) refers to myrtc.o(i.MyRTC_Init) for MyRTC_Init
    clockmenu_setting.o(i.ClockMenu_Setting_Init) refers to store.o(i.Store_Init) for Store_Init
    clockmenu_setting.o(i.ClockMenu_Setting_Init) refers to myrtc.o(i.MyRTC_ReadTime) for MyRTC_ReadTime
    clockmenu_setting.o(i.ClockMenu_Setting_Init) refers to clockmenu_setting.o(.bss) for ClockMenu_Setting
    clockmenu_setting.o(i.ClockMenu_Setting_Init) refers to clockmenu_setting.o(i.ClockMenu_Setting_Funsion) for ClockMenu_Setting_Funsion
    clockmenu_setting.o(i.ClockMenu_Setting_Init) refers to clockmenu_setting.o(.constdata) for ClockMenu_Setting_Icon
    clockmenu_setting.o(i.ClockMenu_Setting_Init) refers to clockmenu_setting.o(.data) for ClockMenu_Setting_Name
    clockmenu_setting.o(i.ClockMenu_Setting_Init) refers to myrtc.o(.data) for MyRTC_Time
    clockmenu_setting.o(.data) refers to clockmenu_setting.o(.conststring) for .conststring
    clockmenu_time.o(i.ClockMenu_Time_Funsion) refers to timer.o(i.Timer_AddFunction) for Timer_AddFunction
    clockmenu_time.o(i.ClockMenu_Time_Funsion) refers to timer.o(i.Timer_SetCount) for Timer_SetCount
    clockmenu_time.o(i.ClockMenu_Time_Funsion) refers to timer.o(i.Timer_Start) for Timer_Start
    clockmenu_time.o(i.ClockMenu_Time_Funsion) refers to message.o(i.MSG_GetMessage) for MSG_GetMessage
    clockmenu_time.o(i.ClockMenu_Time_Funsion) refers to timer.o(i.Timer_DeleteFunction) for Timer_DeleteFunction
    clockmenu_time.o(i.ClockMenu_Time_Funsion) refers to msg.o(i.MSG_DefaultProc) for MSG_DefaultProc
    clockmenu_time.o(i.ClockMenu_Time_Funsion) refers to clockmenu_time.o(i.ClockMenu_Time_Loop) for ClockMenu_Time_Loop
    clockmenu_time.o(i.ClockMenu_Time_Init) refers to menu.o(i.Menu_Init) for Menu_Init
    clockmenu_time.o(i.ClockMenu_Time_Init) refers to myrtc.o(i.MyRTC_Init) for MyRTC_Init
    clockmenu_time.o(i.ClockMenu_Time_Init) refers to key.o(i.Key_Init) for Key_Init
    clockmenu_time.o(i.ClockMenu_Time_Init) refers to clockmenu_time.o(.bss) for ClockMenu_Time
    clockmenu_time.o(i.ClockMenu_Time_Init) refers to clockmenu_time.o(i.ClockMenu_Time_Funsion) for ClockMenu_Time_Funsion
    clockmenu_time.o(i.ClockMenu_Time_Init) refers to clockmenu_time.o(.constdata) for ClockMenu_Time_Icon
    clockmenu_time.o(i.ClockMenu_Time_Init) refers to clockmenu_time.o(.data) for ClockMenu_Time_Name
    clockmenu_time.o(i.ClockMenu_Time_Loop) refers to oled.o(i.OLED_Clear) for OLED_Clear
    clockmenu_time.o(i.ClockMenu_Time_Loop) refers to myrtc.o(i.MyRTC_ReadTime) for MyRTC_ReadTime
    clockmenu_time.o(i.ClockMenu_Time_Loop) refers to oled.o(i.OLED_ShowChinese) for OLED_ShowChinese
    clockmenu_time.o(i.ClockMenu_Time_Loop) refers to oled.o(i.OLED_Printf) for OLED_Printf
    clockmenu_time.o(i.ClockMenu_Time_Loop) refers to oled.o(i.OLED_Update) for OLED_Update
    clockmenu_time.o(i.ClockMenu_Time_Loop) refers to myrtc.o(.data) for MyRTC_Time
    clockmenu_time.o(.data) refers to clockmenu_time.o(.conststring) for .conststring
    main.o(i.IWDG_Init) refers to stm32f10x_iwdg.o(i.IWDG_WriteAccessCmd) for IWDG_WriteAccessCmd
    main.o(i.IWDG_Init) refers to stm32f10x_iwdg.o(i.IWDG_SetPrescaler) for IWDG_SetPrescaler
    main.o(i.IWDG_Init) refers to stm32f10x_iwdg.o(i.IWDG_SetReload) for IWDG_SetReload
    main.o(i.IWDG_Init) refers to stm32f10x_iwdg.o(i.IWDG_ReloadCounter) for IWDG_ReloadCounter
    main.o(i.IWDG_Init) refers to stm32f10x_iwdg.o(i.IWDG_Enable) for IWDG_Enable
    main.o(i.IWDG_Init) refers to timer.o(i.Timer_AddFunction) for Timer_AddFunction
    main.o(i.IWDG_Init) refers to timer.o(i.Timer_Start) for Timer_Start
    main.o(i.main) refers to misc.o(i.NVIC_PriorityGroupConfig) for NVIC_PriorityGroupConfig
    main.o(i.main) refers to oled.o(i.OLED_Init) for OLED_Init
    main.o(i.main) refers to timer.o(i.Timer_Init) for Timer_Init
    main.o(i.main) refers to main.o(i.IWDG_Init) for IWDG_Init
    main.o(i.main) refers to stm32f10x_rcc.o(i.RCC_GetFlagStatus) for RCC_GetFlagStatus
    main.o(i.main) refers to oled.o(i.OLED_Clear) for OLED_Clear
    main.o(i.main) refers to oled.o(i.OLED_ShowString) for OLED_ShowString
    main.o(i.main) refers to oled.o(i.OLED_Update) for OLED_Update
    main.o(i.main) refers to delay.o(i.Delay_ms) for Delay_ms
    main.o(i.main) refers to stm32f10x_rcc.o(i.RCC_ClearFlag) for RCC_ClearFlag
    main.o(i.main) refers to message.o(i.MSG_Init) for MSG_Init
    main.o(i.main) refers to key.o(i.Key_Init) for Key_Init
    main.o(i.main) refers to encoder.o(i.Encoder_Init) for Encoder_Init
    main.o(i.main) refers to gui.o(i.GUI_Init) for GUI_Init
    main.o(i.main) refers to gui.o(i.GUI_Display) for GUI_Display
    main.o(i.main) refers to message.o(i.MSG_GetMessage) for MSG_GetMessage
    main.o(i.main) refers to gui.o(i.GUI_ReceiveCommand) for GUI_ReceiveCommand
    main.o(i.main) refers to msg.o(i.MSG_DefaultProc) for MSG_DefaultProc
    vsprintf.o(.text) refers (Special) to _printf_a.o(.ARM.Collect$$_printf_percent$$00000006) for _printf_a
    vsprintf.o(.text) refers (Special) to _printf_c.o(.ARM.Collect$$_printf_percent$$00000013) for _printf_c
    vsprintf.o(.text) refers (Special) to _printf_charcount.o(.text) for _printf_charcount
    vsprintf.o(.text) refers (Special) to _printf_d.o(.ARM.Collect$$_printf_percent$$00000009) for _printf_d
    vsprintf.o(.text) refers (Special) to _printf_e.o(.ARM.Collect$$_printf_percent$$00000004) for _printf_e
    vsprintf.o(.text) refers (Special) to _printf_f.o(.ARM.Collect$$_printf_percent$$00000003) for _printf_f
    vsprintf.o(.text) refers (Special) to printf1.o(x$fpl$printf1) for _printf_fp_dec
    vsprintf.o(.text) refers (Special) to printf2.o(x$fpl$printf2) for _printf_fp_hex
    vsprintf.o(.text) refers (Special) to _printf_g.o(.ARM.Collect$$_printf_percent$$00000005) for _printf_g
    vsprintf.o(.text) refers (Special) to _printf_i.o(.ARM.Collect$$_printf_percent$$00000008) for _printf_i
    vsprintf.o(.text) refers (Special) to _printf_dec.o(.text) for _printf_int_dec
    vsprintf.o(.text) refers (Special) to _printf_l.o(.ARM.Collect$$_printf_percent$$00000012) for _printf_l
    vsprintf.o(.text) refers (Special) to _printf_lc.o(.ARM.Collect$$_printf_percent$$00000015) for _printf_lc
    vsprintf.o(.text) refers (Special) to _printf_ll.o(.ARM.Collect$$_printf_percent$$00000007) for _printf_ll
    vsprintf.o(.text) refers (Special) to _printf_lld.o(.ARM.Collect$$_printf_percent$$0000000E) for _printf_lld
    vsprintf.o(.text) refers (Special) to _printf_lli.o(.ARM.Collect$$_printf_percent$$0000000D) for _printf_lli
    vsprintf.o(.text) refers (Special) to _printf_llo.o(.ARM.Collect$$_printf_percent$$00000010) for _printf_llo
    vsprintf.o(.text) refers (Special) to _printf_llu.o(.ARM.Collect$$_printf_percent$$0000000F) for _printf_llu
    vsprintf.o(.text) refers (Special) to _printf_llx.o(.ARM.Collect$$_printf_percent$$00000011) for _printf_llx
    vsprintf.o(.text) refers (Special) to _printf_longlong_dec.o(.text) for _printf_longlong_dec
    vsprintf.o(.text) refers (Special) to _printf_hex_int_ll_ptr.o(.text) for _printf_longlong_hex
    vsprintf.o(.text) refers (Special) to _printf_oct_int_ll.o(.text) for _printf_longlong_oct
    vsprintf.o(.text) refers (Special) to _printf_ls.o(.ARM.Collect$$_printf_percent$$00000016) for _printf_ls
    vsprintf.o(.text) refers (Special) to _printf_n.o(.ARM.Collect$$_printf_percent$$00000001) for _printf_n
    vsprintf.o(.text) refers (Special) to _printf_o.o(.ARM.Collect$$_printf_percent$$0000000B) for _printf_o
    vsprintf.o(.text) refers (Special) to _printf_p.o(.ARM.Collect$$_printf_percent$$00000002) for _printf_p
    vsprintf.o(.text) refers (Special) to _printf_percent.o(.ARM.Collect$$_printf_percent$$00000000) for _printf_percent
    vsprintf.o(.text) refers (Special) to _printf_pad.o(.text) for _printf_post_padding
    vsprintf.o(.text) refers (Special) to _printf_s.o(.ARM.Collect$$_printf_percent$$00000014) for _printf_s
    vsprintf.o(.text) refers (Special) to _printf_str.o(.text) for _printf_str
    vsprintf.o(.text) refers (Special) to _printf_truncate.o(.text) for _printf_truncate_signed
    vsprintf.o(.text) refers (Special) to _printf_u.o(.ARM.Collect$$_printf_percent$$0000000A) for _printf_u
    vsprintf.o(.text) refers (Special) to _printf_wctomb.o(.text) for _printf_wctomb
    vsprintf.o(.text) refers (Special) to _printf_x.o(.ARM.Collect$$_printf_percent$$0000000C) for _printf_x
    vsprintf.o(.text) refers to _printf_char_common.o(.text) for _printf_char_common
    vsprintf.o(.text) refers to _sputc.o(.text) for _sputc
    rand.o(.emb_text) refers (Special) to libinit2.o(.ARM.Collect$$libinit$$0000000D) for __rt_lib_init_rand_2
    rand.o(.emb_text) refers to rand.o(.text) for _rand_init
    rand.o(.emb_text) refers to rand.o(.bss) for _random_number_data
    rand.o(.text) refers (Special) to libinit2.o(.ARM.Collect$$libinit$$0000000D) for __rt_lib_init_rand_2
    rand.o(.text) refers to rand.o(.bss) for .bss
    rand.o(.bss) refers (Special) to libinit2.o(.ARM.Collect$$libinit$$0000000D) for __rt_lib_init_rand_2
    localtime.o(.text) refers to localtime_internal.o(.text) for _localtime_r
    localtime.o(.text) refers to localtime.o(.bss) for .bss
    mktime.o(.text) refers to _monlen.o(.constdata) for _monlen
    __main.o(!!!main) refers to __rtentry.o(.ARM.Collect$$rtentry$$00000000) for __rt_entry
    d2f.o(x$fpl$d2f) refers (Special) to usenofp.o(x$fpl$usenofp) for __I$use$fp
    d2f.o(x$fpl$d2f) refers to fretinf.o(x$fpl$fretinf) for __fpl_fretinf
    d2f.o(x$fpl$d2f) refers to dnaninf.o(x$fpl$dnaninf) for __fpl_dnaninf
    daddsub_clz.o(x$fpl$dadd) refers (Special) to usenofp.o(x$fpl$usenofp) for __I$use$fp
    daddsub_clz.o(x$fpl$dadd) refers to daddsub_clz.o(x$fpl$dsub) for _dsub1
    daddsub_clz.o(x$fpl$dadd) refers to dretinf.o(x$fpl$dretinf) for __fpl_dretinf
    daddsub_clz.o(x$fpl$dadd) refers to dnaninf.o(x$fpl$dnaninf) for __fpl_dnaninf
    daddsub_clz.o(x$fpl$drsb) refers (Special) to usenofp.o(x$fpl$usenofp) for __I$use$fp
    daddsub_clz.o(x$fpl$drsb) refers to daddsub_clz.o(x$fpl$dadd) for _dadd1
    daddsub_clz.o(x$fpl$drsb) refers to daddsub_clz.o(x$fpl$dsub) for _dsub1
    daddsub_clz.o(x$fpl$dsub) refers (Special) to usenofp.o(x$fpl$usenofp) for __I$use$fp
    daddsub_clz.o(x$fpl$dsub) refers to daddsub_clz.o(x$fpl$dadd) for _dadd1
    daddsub_clz.o(x$fpl$dsub) refers to dnaninf.o(x$fpl$dnaninf) for __fpl_dnaninf
    ddiv.o(x$fpl$drdiv) refers (Special) to usenofp.o(x$fpl$usenofp) for __I$use$fp
    ddiv.o(x$fpl$drdiv) refers to ddiv.o(x$fpl$ddiv) for ddiv_entry
    ddiv.o(x$fpl$ddiv) refers (Special) to usenofp.o(x$fpl$usenofp) for __I$use$fp
    ddiv.o(x$fpl$ddiv) refers to dretinf.o(x$fpl$dretinf) for __fpl_dretinf
    ddiv.o(x$fpl$ddiv) refers to dnaninf.o(x$fpl$dnaninf) for __fpl_dnaninf
    dfix.o(x$fpl$dfix) refers (Special) to usenofp.o(x$fpl$usenofp) for __I$use$fp
    dfix.o(x$fpl$dfix) refers to dnaninf.o(x$fpl$dnaninf) for __fpl_dnaninf
    dfix.o(x$fpl$dfixr) refers (Special) to usenofp.o(x$fpl$usenofp) for __I$use$fp
    dfix.o(x$fpl$dfixr) refers to dnaninf.o(x$fpl$dnaninf) for __fpl_dnaninf
    dfixu.o(x$fpl$dfixu) refers (Special) to usenofp.o(x$fpl$usenofp) for __I$use$fp
    dfixu.o(x$fpl$dfixu) refers to dnaninf.o(x$fpl$dnaninf) for __fpl_dnaninf
    dfixu.o(x$fpl$dfixur) refers (Special) to usenofp.o(x$fpl$usenofp) for __I$use$fp
    dfixu.o(x$fpl$dfixur) refers to dnaninf.o(x$fpl$dnaninf) for __fpl_dnaninf
    dflt_clz.o(x$fpl$dfltu) refers (Special) to usenofp.o(x$fpl$usenofp) for __I$use$fp
    dflt_clz.o(x$fpl$dflt) refers (Special) to usenofp.o(x$fpl$usenofp) for __I$use$fp
    dflt_clz.o(x$fpl$dfltn) refers (Special) to usenofp.o(x$fpl$usenofp) for __I$use$fp
    dleqf.o(x$fpl$dleqf) refers (Special) to usenofp.o(x$fpl$usenofp) for __I$use$fp
    dleqf.o(x$fpl$dleqf) refers to dnaninf.o(x$fpl$dnaninf) for __fpl_dnaninf
    dleqf.o(x$fpl$dleqf) refers to dcmpi.o(x$fpl$dcmpinf) for __fpl_dcmp_Inf
    dmul.o(x$fpl$dmul) refers (Special) to usenofp.o(x$fpl$usenofp) for __I$use$fp
    dmul.o(x$fpl$dmul) refers to dretinf.o(x$fpl$dretinf) for __fpl_dretinf
    dmul.o(x$fpl$dmul) refers to dnaninf.o(x$fpl$dnaninf) for __fpl_dnaninf
    drleqf.o(x$fpl$drleqf) refers (Special) to usenofp.o(x$fpl$usenofp) for __I$use$fp
    drleqf.o(x$fpl$drleqf) refers to dleqf.o(x$fpl$dleqf) for __fpl_dcmple_InfNaN
    faddsub_clz.o(x$fpl$fadd) refers (Special) to usenofp.o(x$fpl$usenofp) for __I$use$fp
    faddsub_clz.o(x$fpl$fadd) refers to faddsub_clz.o(x$fpl$fsub) for _fsub1
    faddsub_clz.o(x$fpl$fadd) refers to fretinf.o(x$fpl$fretinf) for __fpl_fretinf
    faddsub_clz.o(x$fpl$fadd) refers to fnaninf.o(x$fpl$fnaninf) for __fpl_fnaninf
    faddsub_clz.o(x$fpl$frsb) refers (Special) to usenofp.o(x$fpl$usenofp) for __I$use$fp
    faddsub_clz.o(x$fpl$frsb) refers to faddsub_clz.o(x$fpl$fadd) for _fadd1
    faddsub_clz.o(x$fpl$frsb) refers to faddsub_clz.o(x$fpl$fsub) for _fsub1
    faddsub_clz.o(x$fpl$fsub) refers (Special) to usenofp.o(x$fpl$usenofp) for __I$use$fp
    faddsub_clz.o(x$fpl$fsub) refers to faddsub_clz.o(x$fpl$fadd) for _fadd1
    faddsub_clz.o(x$fpl$fsub) refers to fnaninf.o(x$fpl$fnaninf) for __fpl_fnaninf
    feqf.o(x$fpl$feqf) refers (Special) to usenofp.o(x$fpl$usenofp) for __I$use$fp
    feqf.o(x$fpl$feqf) refers to fnaninf.o(x$fpl$fnaninf) for __fpl_fnaninf
    feqf.o(x$fpl$feqf) refers to fcmpi.o(x$fpl$fcmpinf) for __fpl_fcmp_Inf
    ffixu.o(x$fpl$ffixu) refers (Special) to usenofp.o(x$fpl$usenofp) for __I$use$fp
    ffixu.o(x$fpl$ffixu) refers to fnaninf.o(x$fpl$fnaninf) for __fpl_fnaninf
    ffixu.o(x$fpl$ffixur) refers (Special) to usenofp.o(x$fpl$usenofp) for __I$use$fp
    ffixu.o(x$fpl$ffixur) refers to fnaninf.o(x$fpl$fnaninf) for __fpl_fnaninf
    fflt_clz.o(x$fpl$ffltu) refers (Special) to usenofp.o(x$fpl$usenofp) for __I$use$fp
    fflt_clz.o(x$fpl$fflt) refers (Special) to usenofp.o(x$fpl$usenofp) for __I$use$fp
    fflt_clz.o(x$fpl$ffltn) refers (Special) to usenofp.o(x$fpl$usenofp) for __I$use$fp
    fleqf.o(x$fpl$fleqf) refers (Special) to usenofp.o(x$fpl$usenofp) for __I$use$fp
    fleqf.o(x$fpl$fleqf) refers to fnaninf.o(x$fpl$fnaninf) for __fpl_fnaninf
    fleqf.o(x$fpl$fleqf) refers to fcmpi.o(x$fpl$fcmpinf) for __fpl_fcmp_Inf
    fmul.o(x$fpl$fmul) refers (Special) to usenofp.o(x$fpl$usenofp) for __I$use$fp
    fmul.o(x$fpl$fmul) refers to fretinf.o(x$fpl$fretinf) for __fpl_fretinf
    fmul.o(x$fpl$fmul) refers to fnaninf.o(x$fpl$fnaninf) for __fpl_fnaninf
    atan2.o(i.__softfp_atan2) refers (Special) to usenofp.o(x$fpl$usenofp) for __I$use$fp
    atan2.o(i.__softfp_atan2) refers to atan2.o(i.atan2) for atan2
    atan2.o(i.atan2) refers (Special) to usenofp.o(x$fpl$usenofp) for __I$use$fp
    atan2.o(i.atan2) refers to dunder.o(i.__mathlib_dbl_infnan2) for __mathlib_dbl_infnan2
    atan2.o(i.atan2) refers to atan.o(i.atan) for atan
    atan2.o(i.atan2) refers to ddiv.o(x$fpl$ddiv) for __aeabi_ddiv
    atan2.o(i.atan2) refers to daddsub_clz.o(x$fpl$dsub) for __aeabi_dsub
    atan2.o(i.atan2) refers to daddsub_clz.o(x$fpl$drsb) for __aeabi_drsub
    atan2.o(i.atan2) refers to qnan.o(.constdata) for __mathlib_zero
    atan2_x.o(i.____softfp_atan2$lsc) refers (Special) to usenofp.o(x$fpl$usenofp) for __I$use$fp
    atan2_x.o(i.____softfp_atan2$lsc) refers to atan2_x.o(i.__atan2$lsc) for __atan2$lsc
    atan2_x.o(i.__atan2$lsc) refers (Special) to usenofp.o(x$fpl$usenofp) for __I$use$fp
    atan2_x.o(i.__atan2$lsc) refers to dunder.o(i.__mathlib_dbl_infnan2) for __mathlib_dbl_infnan2
    atan2_x.o(i.__atan2$lsc) refers to atan.o(i.atan) for atan
    atan2_x.o(i.__atan2$lsc) refers to _rserrno.o(.text) for __set_errno
    atan2_x.o(i.__atan2$lsc) refers to ddiv.o(x$fpl$ddiv) for __aeabi_ddiv
    atan2_x.o(i.__atan2$lsc) refers to daddsub_clz.o(x$fpl$dsub) for __aeabi_dsub
    atan2_x.o(i.__atan2$lsc) refers to daddsub_clz.o(x$fpl$drsb) for __aeabi_drsub
    atan2_x.o(i.__atan2$lsc) refers to qnan.o(.constdata) for __mathlib_zero
    round.o(i.round) refers (Special) to usenofp.o(x$fpl$usenofp) for __I$use$fp
    round.o(i.round) refers to drnd.o(x$fpl$drnd) for _drnd
    round.o(i.round) refers to daddsub_clz.o(x$fpl$drsb) for __aeabi_drsub
    round.o(i.round) refers to dleqf.o(x$fpl$dleqf) for __aeabi_cdcmple
    round.o(i.round) refers to drleqf.o(x$fpl$drleqf) for __aeabi_cdrcmple
    round.o(i.round) refers to daddsub_clz.o(x$fpl$dsub) for __aeabi_dsub
    round.o(i.round) refers to daddsub_clz.o(x$fpl$dadd) for __aeabi_dadd
    __rtentry.o(.ARM.Collect$$rtentry$$00000000) refers (Special) to __rtentry2.o(.ARM.Collect$$rtentry$$0000000A) for __rt_entry_li
    __rtentry.o(.ARM.Collect$$rtentry$$00000000) refers (Special) to __rtentry2.o(.ARM.Collect$$rtentry$$0000000D) for __rt_entry_main
    __rtentry.o(.ARM.Collect$$rtentry$$00000000) refers (Special) to __rtentry2.o(.ARM.Collect$$rtentry$$0000000C) for __rt_entry_postli_1
    __rtentry.o(.ARM.Collect$$rtentry$$00000000) refers (Special) to __rtentry2.o(.ARM.Collect$$rtentry$$00000009) for __rt_entry_postsh_1
    __rtentry.o(.ARM.Collect$$rtentry$$00000000) refers (Special) to __rtentry2.o(.ARM.Collect$$rtentry$$00000002) for __rt_entry_presh_1
    __rtentry.o(.ARM.Collect$$rtentry$$00000000) refers (Special) to __rtentry4.o(.ARM.Collect$$rtentry$$00000004) for __rt_entry_sh
    _rserrno.o(.text) refers to rt_errno_addr_intlibspace.o(.text) for __aeabi_errno_addr
    __printf.o(.text) refers to _printf_percent.o(.ARM.Collect$$_printf_percent$$00000000) for _printf_percent
    _printf_str.o(.text) refers (Special) to _printf_char.o(.text) for _printf_cs_common
    _printf_str.o(.text) refers (Weak) to _printf_pad.o(.text) for _printf_pre_padding
    _printf_str.o(.text) refers (Weak) to _printf_pad.o(.text) for _printf_post_padding
    _printf_dec.o(.text) refers (Weak) to _printf_truncate.o(.text) for _printf_truncate_signed
    _printf_dec.o(.text) refers (Weak) to _printf_truncate.o(.text) for _printf_truncate_unsigned
    _printf_dec.o(.text) refers to _printf_intcommon.o(.text) for _printf_int_common
    _printf_char_common.o(.text) refers to __printf_flags_ss_wp.o(.text) for __printf
    _printf_wctomb.o(.text) refers (Special) to _printf_wchar.o(.text) for _printf_lcs_common
    _printf_wctomb.o(.text) refers to _wcrtomb.o(.text) for _wcrtomb
    _printf_wctomb.o(.text) refers (Weak) to _printf_pad.o(.text) for _printf_pre_padding
    _printf_wctomb.o(.text) refers (Weak) to _printf_pad.o(.text) for _printf_post_padding
    _printf_wctomb.o(.text) refers to _printf_wctomb.o(.constdata) for .constdata
    _printf_wctomb.o(.constdata) refers (Special) to _printf_wchar.o(.text) for _printf_lcs_common
    _printf_longlong_dec.o(.text) refers to lludiv10.o(.text) for _ll_udiv10
    _printf_longlong_dec.o(.text) refers to _printf_intcommon.o(.text) for _printf_int_common
    _printf_oct_ll.o(.text) refers to _printf_intcommon.o(.text) for _printf_int_common
    _printf_oct_int.o(.text) refers (Weak) to _printf_truncate.o(.text) for _printf_truncate_unsigned
    _printf_oct_int.o(.text) refers to _printf_intcommon.o(.text) for _printf_int_common
    _printf_oct_int_ll.o(.text) refers to _printf_intcommon.o(.text) for _printf_int_common
    _printf_oct_int_ll.o(.text) refers (Weak) to _printf_truncate.o(.text) for _printf_truncate_unsigned
    _printf_hex_ll.o(.text) refers to _printf_intcommon.o(.text) for _printf_int_common
    _printf_hex_ll.o(.text) refers to _printf_hex_ll.o(.constdata) for .constdata
    _printf_hex_int.o(.text) refers (Weak) to _printf_truncate.o(.text) for _printf_truncate_unsigned
    _printf_hex_int.o(.text) refers to _printf_intcommon.o(.text) for _printf_int_common
    _printf_hex_int.o(.text) refers to _printf_hex_int.o(.constdata) for .constdata
    _printf_hex_int_ll.o(.text) refers to _printf_intcommon.o(.text) for _printf_int_common
    _printf_hex_int_ll.o(.text) refers (Weak) to _printf_truncate.o(.text) for _printf_truncate_unsigned
    _printf_hex_int_ll.o(.text) refers to _printf_hex_int_ll.o(.constdata) for .constdata
    _printf_hex_ptr.o(.text) refers to _printf_intcommon.o(.text) for _printf_int_common
    _printf_hex_ptr.o(.text) refers to _printf_hex_ptr.o(.constdata) for .constdata
    _printf_hex_int_ptr.o(.text) refers to _printf_intcommon.o(.text) for _printf_int_common
    _printf_hex_int_ptr.o(.text) refers (Weak) to _printf_truncate.o(.text) for _printf_truncate_unsigned
    _printf_hex_int_ptr.o(.text) refers to _printf_hex_int_ptr.o(.constdata) for .constdata
    _printf_hex_ll_ptr.o(.text) refers to _printf_intcommon.o(.text) for _printf_int_common
    _printf_hex_ll_ptr.o(.text) refers to _printf_hex_ll_ptr.o(.constdata) for .constdata
    _printf_hex_int_ll_ptr.o(.text) refers to _printf_intcommon.o(.text) for _printf_int_common
    _printf_hex_int_ll_ptr.o(.text) refers (Weak) to _printf_truncate.o(.text) for _printf_truncate_unsigned
    _printf_hex_int_ll_ptr.o(.text) refers to _printf_hex_int_ll_ptr.o(.constdata) for .constdata
    __printf_flags.o(.text) refers to _printf_percent.o(.ARM.Collect$$_printf_percent$$00000000) for _printf_percent
    __printf_flags.o(.text) refers to __printf_flags.o(.constdata) for .constdata
    __printf_ss.o(.text) refers to _printf_percent.o(.ARM.Collect$$_printf_percent$$00000000) for _printf_percent
    __printf_flags_ss.o(.text) refers to _printf_percent.o(.ARM.Collect$$_printf_percent$$00000000) for _printf_percent
    __printf_flags_ss.o(.text) refers to __printf_flags_ss.o(.constdata) for .constdata
    __printf_wp.o(.text) refers to __printf_wp.o(i._is_digit) for _is_digit
    __printf_wp.o(.text) refers to _printf_percent.o(.ARM.Collect$$_printf_percent$$00000000) for _printf_percent
    __printf_flags_wp.o(.text) refers to __printf_wp.o(i._is_digit) for _is_digit
    __printf_flags_wp.o(.text) refers to _printf_percent.o(.ARM.Collect$$_printf_percent$$00000000) for _printf_percent
    __printf_flags_wp.o(.text) refers to __printf_flags_wp.o(.constdata) for .constdata
    __printf_ss_wp.o(.text) refers to __printf_wp.o(i._is_digit) for _is_digit
    __printf_ss_wp.o(.text) refers to _printf_percent.o(.ARM.Collect$$_printf_percent$$00000000) for _printf_percent
    __printf_flags_ss_wp.o(.text) refers to __printf_wp.o(i._is_digit) for _is_digit
    __printf_flags_ss_wp.o(.text) refers to _printf_percent.o(.ARM.Collect$$_printf_percent$$00000000) for _printf_percent
    __printf_flags_ss_wp.o(.text) refers to __printf_flags_ss_wp.o(.constdata) for .constdata
    _printf_c.o(.ARM.Collect$$_printf_percent$$00000013) refers (Weak) to _printf_char.o(.text) for _printf_char
    _printf_s.o(.ARM.Collect$$_printf_percent$$00000014) refers (Weak) to _printf_char.o(.text) for _printf_string
    _printf_n.o(.ARM.Collect$$_printf_percent$$00000001) refers (Weak) to _printf_charcount.o(.text) for _printf_charcount
    _printf_x.o(.ARM.Collect$$_printf_percent$$0000000C) refers (Weak) to _printf_hex_int_ll_ptr.o(.text) for _printf_int_hex
    _printf_p.o(.ARM.Collect$$_printf_percent$$00000002) refers (Weak) to _printf_hex_int_ll_ptr.o(.text) for _printf_hex_ptr
    _printf_o.o(.ARM.Collect$$_printf_percent$$0000000B) refers (Weak) to _printf_oct_int_ll.o(.text) for _printf_int_oct
    _printf_i.o(.ARM.Collect$$_printf_percent$$00000008) refers (Weak) to _printf_dec.o(.text) for _printf_int_dec
    _printf_d.o(.ARM.Collect$$_printf_percent$$00000009) refers (Weak) to _printf_dec.o(.text) for _printf_int_dec
    _printf_u.o(.ARM.Collect$$_printf_percent$$0000000A) refers (Weak) to _printf_dec.o(.text) for _printf_int_dec
    _printf_f.o(.ARM.Collect$$_printf_percent$$00000003) refers (Weak) to printf1.o(x$fpl$printf1) for _printf_fp_dec
    _printf_e.o(.ARM.Collect$$_printf_percent$$00000004) refers (Weak) to printf1.o(x$fpl$printf1) for _printf_fp_dec
    _printf_g.o(.ARM.Collect$$_printf_percent$$00000005) refers (Weak) to printf1.o(x$fpl$printf1) for _printf_fp_dec
    _printf_a.o(.ARM.Collect$$_printf_percent$$00000006) refers (Weak) to printf2.o(x$fpl$printf2) for _printf_fp_hex
    _printf_percent.o(.ARM.Collect$$_printf_percent$$00000000) refers (Special) to _printf_percent_end.o(.ARM.Collect$$_printf_percent$$00000017) for _printf_percent_end
    _printf_lli.o(.ARM.Collect$$_printf_percent$$0000000D) refers (Special) to _printf_ll.o(.ARM.Collect$$_printf_percent$$00000007) for _printf_ll
    _printf_lli.o(.ARM.Collect$$_printf_percent$$0000000D) refers (Weak) to _printf_longlong_dec.o(.text) for _printf_longlong_dec
    _printf_lld.o(.ARM.Collect$$_printf_percent$$0000000E) refers (Special) to _printf_ll.o(.ARM.Collect$$_printf_percent$$00000007) for _printf_ll
    _printf_lld.o(.ARM.Collect$$_printf_percent$$0000000E) refers (Weak) to _printf_longlong_dec.o(.text) for _printf_longlong_dec
    _printf_llu.o(.ARM.Collect$$_printf_percent$$0000000F) refers (Special) to _printf_ll.o(.ARM.Collect$$_printf_percent$$00000007) for _printf_ll
    _printf_llu.o(.ARM.Collect$$_printf_percent$$0000000F) refers (Weak) to _printf_longlong_dec.o(.text) for _printf_longlong_dec
    _printf_lc.o(.ARM.Collect$$_printf_percent$$00000015) refers (Special) to _printf_l.o(.ARM.Collect$$_printf_percent$$00000012) for _printf_l
    _printf_lc.o(.ARM.Collect$$_printf_percent$$00000015) refers (Weak) to _printf_wchar.o(.text) for _printf_wchar
    _printf_ls.o(.ARM.Collect$$_printf_percent$$00000016) refers (Special) to _printf_l.o(.ARM.Collect$$_printf_percent$$00000012) for _printf_l
    _printf_ls.o(.ARM.Collect$$_printf_percent$$00000016) refers (Weak) to _printf_wchar.o(.text) for _printf_wstring
    _printf_llo.o(.ARM.Collect$$_printf_percent$$00000010) refers (Special) to _printf_ll.o(.ARM.Collect$$_printf_percent$$00000007) for _printf_ll
    _printf_llo.o(.ARM.Collect$$_printf_percent$$00000010) refers (Weak) to _printf_oct_int_ll.o(.text) for _printf_ll_oct
    _printf_llx.o(.ARM.Collect$$_printf_percent$$00000011) refers (Special) to _printf_ll.o(.ARM.Collect$$_printf_percent$$00000007) for _printf_ll
    _printf_llx.o(.ARM.Collect$$_printf_percent$$00000011) refers (Weak) to _printf_hex_int_ll_ptr.o(.text) for _printf_ll_hex
    localtime_internal.o(.text) refers to rt_memclr_w.o(.text) for __aeabi_memclr4
    localtime_internal.o(.text) refers to _monlen.o(.constdata) for _monlen
    libinit2.o(.ARM.Collect$$libinit$$0000000D) refers (Weak) to rand.o(.text) for _rand_init
    libinit2.o(.ARM.Collect$$libinit$$0000000F) refers (Weak) to rt_locale_intlibspace.o(.text) for __rt_locale
    libinit2.o(.ARM.Collect$$libinit$$00000010) refers to libinit2.o(.ARM.Collect$$libinit$$0000000F) for .ARM.Collect$$libinit$$0000000F
    libinit2.o(.ARM.Collect$$libinit$$00000012) refers to libinit2.o(.ARM.Collect$$libinit$$0000000F) for .ARM.Collect$$libinit$$0000000F
    libinit2.o(.ARM.Collect$$libinit$$00000012) refers (Weak) to lc_ctype_c.o(locale$$code) for _get_lc_ctype
    libinit2.o(.ARM.Collect$$libinit$$00000014) refers to libinit2.o(.ARM.Collect$$libinit$$0000000F) for .ARM.Collect$$libinit$$0000000F
    libinit2.o(.ARM.Collect$$libinit$$00000016) refers to libinit2.o(.ARM.Collect$$libinit$$0000000F) for .ARM.Collect$$libinit$$0000000F
    libinit2.o(.ARM.Collect$$libinit$$00000016) refers (Weak) to lc_numeric_c.o(locale$$code) for _get_lc_numeric
    libinit2.o(.ARM.Collect$$libinit$$00000018) refers to libinit2.o(.ARM.Collect$$libinit$$0000000F) for .ARM.Collect$$libinit$$0000000F
    libinit2.o(.ARM.Collect$$libinit$$00000026) refers to argv_veneer.o(.emb_text) for __ARM_argv_veneer
    libinit2.o(.ARM.Collect$$libinit$$00000027) refers to argv_veneer.o(.emb_text) for __ARM_argv_veneer
    dcmpi.o(x$fpl$dcmpinf) refers (Special) to usenofp.o(x$fpl$usenofp) for __I$use$fp
    dnaninf.o(x$fpl$dnaninf) refers (Special) to usenofp.o(x$fpl$usenofp) for __I$use$fp
    dretinf.o(x$fpl$dretinf) refers (Special) to usenofp.o(x$fpl$usenofp) for __I$use$fp
    drnd.o(x$fpl$drnd) refers (Special) to usenofp.o(x$fpl$usenofp) for __I$use$fp
    drnd.o(x$fpl$drnd) refers to dnaninf.o(x$fpl$dnaninf) for __fpl_dnaninf
    fcmpi.o(x$fpl$fcmpinf) refers (Special) to usenofp.o(x$fpl$usenofp) for __I$use$fp
    fnaninf.o(x$fpl$fnaninf) refers (Special) to usenofp.o(x$fpl$usenofp) for __I$use$fp
    fretinf.o(x$fpl$fretinf) refers (Special) to usenofp.o(x$fpl$usenofp) for __I$use$fp
    printf1.o(x$fpl$printf1) refers to _printf_fp_dec.o(.text) for _printf_fp_dec_real
    printf2.o(x$fpl$printf2) refers to _printf_fp_hex.o(.text) for _printf_fp_hex_real
    printf2b.o(x$fpl$printf2) refers to _printf_fp_hex.o(.text) for _printf_fp_hex_real
    atan.o(i.__softfp_atan) refers (Special) to usenofp.o(x$fpl$usenofp) for __I$use$fp
    atan.o(i.__softfp_atan) refers to atan.o(i.atan) for atan
    atan.o(i.atan) refers (Special) to usenofp.o(x$fpl$usenofp) for __I$use$fp
    atan.o(i.atan) refers to dunder.o(i.__mathlib_dbl_infnan) for __mathlib_dbl_infnan
    atan.o(i.atan) refers to fpclassify.o(i.__ARM_fpclassify) for __ARM_fpclassify
    atan.o(i.atan) refers to dunder.o(i.__mathlib_dbl_underflow) for __mathlib_dbl_underflow
    atan.o(i.atan) refers to daddsub_clz.o(x$fpl$dadd) for __aeabi_dadd
    atan.o(i.atan) refers to scalbn.o(x$fpl$scalbn) for __ARM_scalbn
    atan.o(i.atan) refers to daddsub_clz.o(x$fpl$dsub) for __aeabi_dsub
    atan.o(i.atan) refers to ddiv.o(x$fpl$ddiv) for __aeabi_ddiv
    atan.o(i.atan) refers to dmul.o(x$fpl$dmul) for __aeabi_dmul
    atan.o(i.atan) refers to poly.o(i.__kernel_poly) for __kernel_poly
    atan.o(i.atan) refers to daddsub_clz.o(x$fpl$drsb) for __aeabi_drsub
    atan.o(i.atan) refers to atan.o(.constdata) for .constdata
    atan.o(.constdata) refers (Special) to usenofp.o(x$fpl$usenofp) for __I$use$fp
    atan_x.o(i.____softfp_atan$lsc) refers (Special) to usenofp.o(x$fpl$usenofp) for __I$use$fp
    atan_x.o(i.____softfp_atan$lsc) refers to atan_x.o(i.__atan$lsc) for __atan$lsc
    atan_x.o(i.__atan$lsc) refers (Special) to usenofp.o(x$fpl$usenofp) for __I$use$fp
    atan_x.o(i.__atan$lsc) refers to dunder.o(i.__mathlib_dbl_infnan) for __mathlib_dbl_infnan
    atan_x.o(i.__atan$lsc) refers to daddsub_clz.o(x$fpl$dadd) for __aeabi_dadd
    atan_x.o(i.__atan$lsc) refers to scalbn.o(x$fpl$scalbn) for __ARM_scalbn
    atan_x.o(i.__atan$lsc) refers to daddsub_clz.o(x$fpl$dsub) for __aeabi_dsub
    atan_x.o(i.__atan$lsc) refers to ddiv.o(x$fpl$ddiv) for __aeabi_ddiv
    atan_x.o(i.__atan$lsc) refers to dmul.o(x$fpl$dmul) for __aeabi_dmul
    atan_x.o(i.__atan$lsc) refers to poly.o(i.__kernel_poly) for __kernel_poly
    atan_x.o(i.__atan$lsc) refers to daddsub_clz.o(x$fpl$drsb) for __aeabi_drsub
    atan_x.o(i.__atan$lsc) refers to atan_x.o(.constdata) for .constdata
    atan_x.o(.constdata) refers (Special) to usenofp.o(x$fpl$usenofp) for __I$use$fp
    dunder.o(i.__mathlib_dbl_divzero) refers to ddiv.o(x$fpl$ddiv) for __aeabi_ddiv
    dunder.o(i.__mathlib_dbl_infnan) refers to scalbn.o(x$fpl$scalbn) for __ARM_scalbn
    dunder.o(i.__mathlib_dbl_infnan2) refers to daddsub_clz.o(x$fpl$dadd) for __aeabi_dadd
    dunder.o(i.__mathlib_dbl_invalid) refers to ddiv.o(x$fpl$ddiv) for __aeabi_ddiv
    dunder.o(i.__mathlib_dbl_overflow) refers to scalbn.o(x$fpl$scalbn) for __ARM_scalbn
    dunder.o(i.__mathlib_dbl_posinfnan) refers to dmul.o(x$fpl$dmul) for __aeabi_dmul
    dunder.o(i.__mathlib_dbl_underflow) refers to scalbn.o(x$fpl$scalbn) for __ARM_scalbn
    qnan.o(.constdata) refers (Special) to usenofp.o(x$fpl$usenofp) for __I$use$fp
    __rtentry2.o(.ARM.Collect$$rtentry$$00000008) refers to boardinit2.o(.text) for _platform_post_stackheap_init
    __rtentry2.o(.ARM.Collect$$rtentry$$0000000A) refers to libinit.o(.ARM.Collect$$libinit$$00000000) for __rt_lib_init
    __rtentry2.o(.ARM.Collect$$rtentry$$0000000B) refers to boardinit3.o(.text) for _platform_post_lib_init
    __rtentry2.o(.ARM.Collect$$rtentry$$0000000D) refers to main.o(i.main) for main
    __rtentry2.o(.ARM.Collect$$rtentry$$0000000D) refers to exit.o(.text) for exit
    __rtentry2.o(.ARM.exidx) refers to __rtentry2.o(.ARM.Collect$$rtentry$$00000001) for .ARM.Collect$$rtentry$$00000001
    __rtentry2.o(.ARM.exidx) refers to __rtentry2.o(.ARM.Collect$$rtentry$$00000008) for .ARM.Collect$$rtentry$$00000008
    __rtentry2.o(.ARM.exidx) refers to __rtentry2.o(.ARM.Collect$$rtentry$$0000000A) for .ARM.Collect$$rtentry$$0000000A
    __rtentry2.o(.ARM.exidx) refers to __rtentry2.o(.ARM.Collect$$rtentry$$0000000B) for .ARM.Collect$$rtentry$$0000000B
    __rtentry2.o(.ARM.exidx) refers to __rtentry2.o(.ARM.Collect$$rtentry$$0000000D) for .ARM.Collect$$rtentry$$0000000D
    __rtentry4.o(.ARM.Collect$$rtentry$$00000004) refers to sys_stackheap_outer.o(.text) for __user_setup_stackheap
    __rtentry4.o(.ARM.exidx) refers to __rtentry4.o(.ARM.Collect$$rtentry$$00000004) for .ARM.Collect$$rtentry$$00000004
    rt_errno_addr.o(.text) refers to rt_errno_addr.o(.bss) for __aeabi_errno_addr_data
    rt_errno_addr_intlibspace.o(.text) refers to libspace.o(.bss) for __libspace_start
    _printf_intcommon.o(.text) refers (Weak) to _printf_pad.o(.text) for _printf_pre_padding
    _printf_intcommon.o(.text) refers (Weak) to _printf_pad.o(.text) for _printf_pre_padding
    _printf_intcommon.o(.text) refers (Weak) to _printf_pad.o(.text) for _printf_post_padding
    _printf_fp_dec.o(.text) refers (Special) to usenofp.o(x$fpl$usenofp) for __I$use$fp
    _printf_fp_dec.o(.text) refers (Special) to lc_numeric_c.o(locale$$code) for _get_lc_numeric
    _printf_fp_dec.o(.text) refers to bigflt0.o(.text) for _btod_etento
    _printf_fp_dec.o(.text) refers to btod.o(CL$$btod_d2e) for _btod_d2e
    _printf_fp_dec.o(.text) refers to btod.o(CL$$btod_ediv) for _btod_ediv
    _printf_fp_dec.o(.text) refers to btod.o(CL$$btod_emul) for _btod_emul
    _printf_fp_dec.o(.text) refers to lludiv10.o(.text) for _ll_udiv10
    _printf_fp_dec.o(.text) refers to fpclassify.o(i.__ARM_fpclassify) for __ARM_fpclassify
    _printf_fp_dec.o(.text) refers to _printf_fp_infnan.o(.text) for _printf_fp_infnan
    _printf_fp_dec.o(.text) refers (Weak) to _printf_pad.o(.text) for _printf_pre_padding
    _printf_fp_dec.o(.text) refers (Weak) to _printf_pad.o(.text) for _printf_pre_padding
    _printf_fp_dec.o(.text) refers to rt_locale_intlibspace.o(.text) for __rt_locale
    _printf_fp_dec.o(.text) refers (Weak) to _printf_pad.o(.text) for _printf_post_padding
    _printf_fp_hex.o(.text) refers (Special) to usenofp.o(x$fpl$usenofp) for __I$use$fp
    _printf_fp_hex.o(.text) refers to fpclassify.o(i.__ARM_fpclassify) for __ARM_fpclassify
    _printf_fp_hex.o(.text) refers to _printf_fp_infnan.o(.text) for _printf_fp_infnan
    _printf_fp_hex.o(.text) refers (Weak) to _printf_pad.o(.text) for _printf_pre_padding
    _printf_fp_hex.o(.text) refers (Weak) to _printf_pad.o(.text) for _printf_pre_padding
    _printf_fp_hex.o(.text) refers (Weak) to _printf_pad.o(.text) for _printf_post_padding
    _printf_fp_hex.o(.text) refers to _printf_fp_hex.o(.constdata) for .constdata
    _printf_fp_hex.o(.constdata) refers (Special) to usenofp.o(x$fpl$usenofp) for __I$use$fp
    _printf_char.o(.text) refers (Weak) to _printf_str.o(.text) for _printf_str
    _printf_wchar.o(.text) refers (Weak) to _printf_wctomb.o(.text) for _printf_wctomb
    _wcrtomb.o(.text) refers to rt_ctype_table.o(.text) for __rt_ctype_table
    argv_veneer.o(.emb_text) refers to no_argv.o(.text) for __ARM_get_argv
    scalbn.o(x$fpl$scalbn) refers (Special) to usenofp.o(x$fpl$usenofp) for __I$use$fp
    scalbn.o(x$fpl$scalbn) refers to dcheck1.o(x$fpl$dcheck1) for __fpl_dcheck_NaN1
    fpclassify.o(i.__ARM_fpclassify) refers (Special) to usenofp.o(x$fpl$usenofp) for __I$use$fp
    poly.o(i.__kernel_poly) refers (Special) to usenofp.o(x$fpl$usenofp) for __I$use$fp
    poly.o(i.__kernel_poly) refers to dmul.o(x$fpl$dmul) for __aeabi_dmul
    poly.o(i.__kernel_poly) refers to daddsub_clz.o(x$fpl$dadd) for __aeabi_dadd
    libspace.o(.text) refers to libspace.o(.bss) for __libspace_start
    sys_stackheap_outer.o(.text) refers to libspace.o(.text) for __user_perproc_libspace
    sys_stackheap_outer.o(.text) refers to startup_stm32f10x_md.o(.text) for __user_initial_stackheap
    rt_ctype_table.o(.text) refers to rt_locale_intlibspace.o(.text) for __rt_locale
    rt_ctype_table.o(.text) refers to lc_ctype_c.o(locale$$code) for _get_lc_ctype
    rt_locale.o(.text) refers to rt_locale.o(.bss) for __rt_locale_data
    rt_locale_intlibspace.o(.text) refers to libspace.o(.bss) for __libspace_start
    _printf_fp_infnan.o(.text) refers (Weak) to _printf_pad.o(.text) for _printf_pre_padding
    _printf_fp_infnan.o(.text) refers (Weak) to _printf_pad.o(.text) for _printf_post_padding
    bigflt0.o(.text) refers (Special) to usenofp.o(x$fpl$usenofp) for __I$use$fp
    bigflt0.o(.text) refers to btod.o(CL$$btod_emul) for _btod_emul
    bigflt0.o(.text) refers to btod.o(CL$$btod_ediv) for _btod_ediv
    bigflt0.o(.text) refers to bigflt0.o(.constdata) for .constdata
    bigflt0.o(.constdata) refers (Special) to usenofp.o(x$fpl$usenofp) for __I$use$fp
    btod.o(CL$$btod_d2e) refers (Special) to usenofp.o(x$fpl$usenofp) for __I$use$fp
    btod.o(CL$$btod_d2e) refers to btod.o(CL$$btod_d2e_norm_op1) for _d2e_norm_op1
    btod.o(CL$$btod_d2e_norm_op1) refers (Special) to usenofp.o(x$fpl$usenofp) for __I$use$fp
    btod.o(CL$$btod_d2e_norm_op1) refers to btod.o(CL$$btod_d2e_denorm_low) for _d2e_denorm_low
    btod.o(CL$$btod_d2e_denorm_low) refers (Special) to usenofp.o(x$fpl$usenofp) for __I$use$fp
    btod.o(CL$$btod_emul) refers (Special) to usenofp.o(x$fpl$usenofp) for __I$use$fp
    btod.o(CL$$btod_emul) refers to btod.o(CL$$btod_mult_common) for __btod_mult_common
    btod.o(CL$$btod_emul) refers to btod.o(CL$$btod_e2e) for _e2e
    btod.o(CL$$btod_ediv) refers (Special) to usenofp.o(x$fpl$usenofp) for __I$use$fp
    btod.o(CL$$btod_ediv) refers to btod.o(CL$$btod_div_common) for __btod_div_common
    btod.o(CL$$btod_ediv) refers to btod.o(CL$$btod_e2e) for _e2e
    btod.o(CL$$btod_emuld) refers (Special) to usenofp.o(x$fpl$usenofp) for __I$use$fp
    btod.o(CL$$btod_emuld) refers to btod.o(CL$$btod_mult_common) for __btod_mult_common
    btod.o(CL$$btod_emuld) refers to btod.o(CL$$btod_e2d) for _e2d
    btod.o(CL$$btod_edivd) refers (Special) to usenofp.o(x$fpl$usenofp) for __I$use$fp
    btod.o(CL$$btod_edivd) refers to btod.o(CL$$btod_div_common) for __btod_div_common
    btod.o(CL$$btod_edivd) refers to btod.o(CL$$btod_e2d) for _e2d
    btod.o(CL$$btod_e2e) refers (Special) to usenofp.o(x$fpl$usenofp) for __I$use$fp
    btod.o(CL$$btod_e2d) refers (Special) to usenofp.o(x$fpl$usenofp) for __I$use$fp
    btod.o(CL$$btod_e2d) refers to btod.o(CL$$btod_e2e) for _e2e
    btod.o(CL$$btod_mult_common) refers (Special) to usenofp.o(x$fpl$usenofp) for __I$use$fp
    btod.o(CL$$btod_div_common) refers (Special) to usenofp.o(x$fpl$usenofp) for __I$use$fp
    lc_numeric_c.o(locale$$data) refers (Special) to libinit2.o(.ARM.Collect$$libinit$$00000016) for __rt_lib_init_lc_numeric_2
    lc_numeric_c.o(locale$$code) refers (Special) to libinit2.o(.ARM.Collect$$libinit$$00000016) for __rt_lib_init_lc_numeric_2
    lc_numeric_c.o(locale$$code) refers to strcmpv7m.o(.text) for strcmp
    lc_numeric_c.o(locale$$code) refers to lc_numeric_c.o(locale$$data) for __lcnum_c_name
    exit.o(.text) refers to rtexit.o(.ARM.Collect$$rtexit$$00000000) for __rt_exit
    _get_argv_nomalloc.o(.text) refers (Special) to hrguard.o(.text) for __heap_region$guard
    _get_argv_nomalloc.o(.text) refers to defsig_rtmem_outer.o(.text) for __rt_SIGRTMEM
    _get_argv_nomalloc.o(.text) refers to sys_command.o(.text) for _sys_command_string
    libinit.o(.ARM.Collect$$libinit$$00000000) refers (Special) to libinit2.o(.ARM.Collect$$libinit$$0000002E) for __rt_lib_init_alloca_1
    libinit.o(.ARM.Collect$$libinit$$00000000) refers (Special) to libinit2.o(.ARM.Collect$$libinit$$0000002C) for __rt_lib_init_argv_1
    libinit.o(.ARM.Collect$$libinit$$00000000) refers (Special) to libinit2.o(.ARM.Collect$$libinit$$0000001B) for __rt_lib_init_atexit_1
    libinit.o(.ARM.Collect$$libinit$$00000000) refers (Special) to libinit2.o(.ARM.Collect$$libinit$$00000021) for __rt_lib_init_clock_1
    libinit.o(.ARM.Collect$$libinit$$00000000) refers (Special) to libinit2.o(.ARM.Collect$$libinit$$00000032) for __rt_lib_init_cpp_1
    libinit.o(.ARM.Collect$$libinit$$00000000) refers (Special) to libinit2.o(.ARM.Collect$$libinit$$00000030) for __rt_lib_init_exceptions_1
    libinit.o(.ARM.Collect$$libinit$$00000000) refers (Special) to libinit2.o(.ARM.Collect$$libinit$$00000002) for __rt_lib_init_fp_1
    libinit.o(.ARM.Collect$$libinit$$00000000) refers (Special) to libinit2.o(.ARM.Collect$$libinit$$0000001F) for __rt_lib_init_fp_trap_1
    libinit.o(.ARM.Collect$$libinit$$00000000) refers (Special) to libinit2.o(.ARM.Collect$$libinit$$00000023) for __rt_lib_init_getenv_1
    libinit.o(.ARM.Collect$$libinit$$00000000) refers (Special) to libinit2.o(.ARM.Collect$$libinit$$0000000A) for __rt_lib_init_heap_1
    libinit.o(.ARM.Collect$$libinit$$00000000) refers (Special) to libinit2.o(.ARM.Collect$$libinit$$00000011) for __rt_lib_init_lc_collate_1
    libinit.o(.ARM.Collect$$libinit$$00000000) refers (Special) to libinit2.o(.ARM.Collect$$libinit$$00000013) for __rt_lib_init_lc_ctype_1
    libinit.o(.ARM.Collect$$libinit$$00000000) refers (Special) to libinit2.o(.ARM.Collect$$libinit$$00000015) for __rt_lib_init_lc_monetary_1
    libinit.o(.ARM.Collect$$libinit$$00000000) refers (Special) to libinit2.o(.ARM.Collect$$libinit$$00000017) for __rt_lib_init_lc_numeric_1
    libinit.o(.ARM.Collect$$libinit$$00000000) refers (Special) to libinit2.o(.ARM.Collect$$libinit$$00000019) for __rt_lib_init_lc_time_1
    libinit.o(.ARM.Collect$$libinit$$00000000) refers (Special) to libinit2.o(.ARM.Collect$$libinit$$00000004) for __rt_lib_init_preinit_1
    libinit.o(.ARM.Collect$$libinit$$00000000) refers (Special) to libinit2.o(.ARM.Collect$$libinit$$0000000E) for __rt_lib_init_rand_1
    libinit.o(.ARM.Collect$$libinit$$00000000) refers (Special) to libinit2.o(.ARM.Collect$$libinit$$00000033) for __rt_lib_init_return
    libinit.o(.ARM.Collect$$libinit$$00000000) refers (Special) to libinit2.o(.ARM.Collect$$libinit$$0000001D) for __rt_lib_init_signal_1
    libinit.o(.ARM.Collect$$libinit$$00000000) refers (Special) to libinit2.o(.ARM.Collect$$libinit$$00000025) for __rt_lib_init_stdio_1
    libinit.o(.ARM.Collect$$libinit$$00000000) refers (Special) to libinit2.o(.ARM.Collect$$libinit$$0000000C) for __rt_lib_init_user_alloc_1
    dcheck1.o(x$fpl$dcheck1) refers (Special) to usenofp.o(x$fpl$usenofp) for __I$use$fp
    dcheck1.o(x$fpl$dcheck1) refers to retnan.o(x$fpl$retnan) for __fpl_return_NaN
    istatus.o(x$fpl$ieeestatus) refers (Special) to usenofp.o(x$fpl$usenofp) for __I$use$fp
    sys_command.o(.text) refers (Special) to use_no_semi.o(.text) for __I$use$semihosting
    sys_command.o(.text) refers (Special) to indicate_semi.o(.text) for __semihosting_library_function
    rtexit.o(.ARM.Collect$$rtexit$$00000000) refers (Special) to rtexit2.o(.ARM.Collect$$rtexit$$00000004) for __rt_exit_exit
    rtexit.o(.ARM.Collect$$rtexit$$00000000) refers (Special) to rtexit2.o(.ARM.Collect$$rtexit$$00000003) for __rt_exit_ls
    rtexit.o(.ARM.Collect$$rtexit$$00000000) refers (Special) to rtexit2.o(.ARM.Collect$$rtexit$$00000002) for __rt_exit_prels_1
    rtexit.o(.ARM.exidx) refers (Special) to rtexit2.o(.ARM.Collect$$rtexit$$00000004) for __rt_exit_exit
    rtexit.o(.ARM.exidx) refers (Special) to rtexit2.o(.ARM.Collect$$rtexit$$00000003) for __rt_exit_ls
    rtexit.o(.ARM.exidx) refers (Special) to rtexit2.o(.ARM.Collect$$rtexit$$00000002) for __rt_exit_prels_1
    rtexit.o(.ARM.exidx) refers to rtexit.o(.ARM.Collect$$rtexit$$00000000) for .ARM.Collect$$rtexit$$00000000
    lc_ctype_c.o(locale$$data) refers (Special) to libinit2.o(.ARM.Collect$$libinit$$00000012) for __rt_lib_init_lc_ctype_2
    lc_ctype_c.o(locale$$code) refers (Special) to libinit2.o(.ARM.Collect$$libinit$$00000012) for __rt_lib_init_lc_ctype_2
    lc_ctype_c.o(locale$$code) refers to strcmpv7m.o(.text) for strcmp
    lc_ctype_c.o(locale$$code) refers to lc_ctype_c.o(locale$$data) for __lcctype_c_name
    defsig_rtmem_outer.o(.text) refers to defsig_rtmem_inner.o(.text) for __rt_SIGRTMEM_inner
    defsig_rtmem_outer.o(.text) refers to defsig_exit.o(.text) for __sig_exit
    defsig_rtmem_formal.o(.text) refers to rt_raise.o(.text) for __rt_raise
    retnan.o(x$fpl$retnan) refers (Special) to usenofp.o(x$fpl$usenofp) for __I$use$fp
    retnan.o(x$fpl$retnan) refers to trapv.o(x$fpl$trapveneer) for __fpl_cmpreturn
    rtexit2.o(.ARM.Collect$$rtexit$$00000003) refers to libshutdown.o(.ARM.Collect$$libshutdown$$00000000) for __rt_lib_shutdown
    rtexit2.o(.ARM.Collect$$rtexit$$00000004) refers to sys_exit.o(.text) for _sys_exit
    rtexit2.o(.ARM.exidx) refers to rtexit2.o(.ARM.Collect$$rtexit$$00000001) for .ARM.Collect$$rtexit$$00000001
    rtexit2.o(.ARM.exidx) refers to rtexit2.o(.ARM.Collect$$rtexit$$00000003) for .ARM.Collect$$rtexit$$00000003
    rtexit2.o(.ARM.exidx) refers to rtexit2.o(.ARM.Collect$$rtexit$$00000004) for .ARM.Collect$$rtexit$$00000004
    rt_raise.o(.text) refers to __raise.o(.text) for __raise
    rt_raise.o(.text) refers to sys_exit.o(.text) for _sys_exit
    defsig_exit.o(.text) refers to sys_exit.o(.text) for _sys_exit
    defsig_rtmem_inner.o(.text) refers to defsig_general.o(.text) for __default_signal_display
    trapv.o(x$fpl$trapveneer) refers (Special) to usenofp.o(x$fpl$usenofp) for __I$use$fp
    sys_exit.o(.text) refers (Special) to use_no_semi.o(.text) for __I$use$semihosting
    sys_exit.o(.text) refers (Special) to indicate_semi.o(.text) for __semihosting_library_function
    __raise.o(.text) refers to defsig.o(CL$$defsig) for __default_signal_handler
    defsig_general.o(.text) refers to sys_wrch.o(.text) for _ttywrch
    libshutdown.o(.ARM.Collect$$libshutdown$$00000000) refers (Special) to libshutdown2.o(.ARM.Collect$$libshutdown$$00000002) for __rt_lib_shutdown_cpp_1
    libshutdown.o(.ARM.Collect$$libshutdown$$00000000) refers (Special) to libshutdown2.o(.ARM.Collect$$libshutdown$$00000007) for __rt_lib_shutdown_fp_trap_1
    libshutdown.o(.ARM.Collect$$libshutdown$$00000000) refers (Special) to libshutdown2.o(.ARM.Collect$$libshutdown$$0000000F) for __rt_lib_shutdown_heap_1
    libshutdown.o(.ARM.Collect$$libshutdown$$00000000) refers (Special) to libshutdown2.o(.ARM.Collect$$libshutdown$$00000010) for __rt_lib_shutdown_return
    libshutdown.o(.ARM.Collect$$libshutdown$$00000000) refers (Special) to libshutdown2.o(.ARM.Collect$$libshutdown$$0000000A) for __rt_lib_shutdown_signal_1
    libshutdown.o(.ARM.Collect$$libshutdown$$00000000) refers (Special) to libshutdown2.o(.ARM.Collect$$libshutdown$$00000004) for __rt_lib_shutdown_stdio_1
    libshutdown.o(.ARM.Collect$$libshutdown$$00000000) refers (Special) to libshutdown2.o(.ARM.Collect$$libshutdown$$0000000C) for __rt_lib_shutdown_user_alloc_1
    sys_wrch.o(.text) refers (Special) to use_no_semi.o(.text) for __I$use$semihosting
    sys_wrch.o(.text) refers (Special) to indicate_semi.o(.text) for __semihosting_library_function
    defsig.o(CL$$defsig) refers to defsig_rtmem_inner.o(.text) for __rt_SIGRTMEM_inner
    defsig_abrt_inner.o(.text) refers to defsig_general.o(.text) for __default_signal_display
    defsig_fpe_inner.o(.text) refers to defsig_general.o(.text) for __default_signal_display
    defsig_rtred_inner.o(.text) refers to defsig_general.o(.text) for __default_signal_display
    defsig_stak_inner.o(.text) refers to defsig_general.o(.text) for __default_signal_display
    defsig_pvfn_inner.o(.text) refers to defsig_general.o(.text) for __default_signal_display
    defsig_cppl_inner.o(.text) refers to defsig_general.o(.text) for __default_signal_display
    defsig_segv_inner.o(.text) refers to defsig_general.o(.text) for __default_signal_display
    defsig_other.o(.text) refers to defsig_general.o(.text) for __default_signal_display


==============================================================================

Removing Unused input sections from the image.

    Removing system_stm32f10x.o(i.SystemCoreClockUpdate), (164 bytes).
    Removing system_stm32f10x.o(.data), (20 bytes).
    Removing core_cm3.o(.emb_text), (32 bytes).
    Removing misc.o(i.NVIC_SetVectorTable), (20 bytes).
    Removing misc.o(i.NVIC_SystemLPConfig), (32 bytes).
    Removing misc.o(i.SysTick_CLKSourceConfig), (40 bytes).
    Removing stm32f10x_adc.o(i.ADC_AnalogWatchdogCmd), (20 bytes).
    Removing stm32f10x_adc.o(i.ADC_AnalogWatchdogSingleChannelConfig), (16 bytes).
    Removing stm32f10x_adc.o(i.ADC_AnalogWatchdogThresholdsConfig), (6 bytes).
    Removing stm32f10x_adc.o(i.ADC_AutoInjectedConvCmd), (22 bytes).
    Removing stm32f10x_adc.o(i.ADC_ClearFlag), (6 bytes).
    Removing stm32f10x_adc.o(i.ADC_ClearITPendingBit), (10 bytes).
    Removing stm32f10x_adc.o(i.ADC_Cmd), (22 bytes).
    Removing stm32f10x_adc.o(i.ADC_DMACmd), (22 bytes).
    Removing stm32f10x_adc.o(i.ADC_DeInit), (92 bytes).
    Removing stm32f10x_adc.o(i.ADC_DiscModeChannelCountConfig), (24 bytes).
    Removing stm32f10x_adc.o(i.ADC_DiscModeCmd), (22 bytes).
    Removing stm32f10x_adc.o(i.ADC_ExternalTrigConvCmd), (22 bytes).
    Removing stm32f10x_adc.o(i.ADC_ExternalTrigInjectedConvCmd), (22 bytes).
    Removing stm32f10x_adc.o(i.ADC_ExternalTrigInjectedConvConfig), (16 bytes).
    Removing stm32f10x_adc.o(i.ADC_GetCalibrationStatus), (20 bytes).
    Removing stm32f10x_adc.o(i.ADC_GetConversionValue), (8 bytes).
    Removing stm32f10x_adc.o(i.ADC_GetDualModeConversionValue), (12 bytes).
    Removing stm32f10x_adc.o(i.ADC_GetFlagStatus), (18 bytes).
    Removing stm32f10x_adc.o(i.ADC_GetITStatus), (36 bytes).
    Removing stm32f10x_adc.o(i.ADC_GetInjectedConversionValue), (28 bytes).
    Removing stm32f10x_adc.o(i.ADC_GetResetCalibrationStatus), (20 bytes).
    Removing stm32f10x_adc.o(i.ADC_GetSoftwareStartConvStatus), (20 bytes).
    Removing stm32f10x_adc.o(i.ADC_GetSoftwareStartInjectedConvCmdStatus), (20 bytes).
    Removing stm32f10x_adc.o(i.ADC_ITConfig), (24 bytes).
    Removing stm32f10x_adc.o(i.ADC_Init), (80 bytes).
    Removing stm32f10x_adc.o(i.ADC_InjectedChannelConfig), (130 bytes).
    Removing stm32f10x_adc.o(i.ADC_InjectedDiscModeCmd), (22 bytes).
    Removing stm32f10x_adc.o(i.ADC_InjectedSequencerLengthConfig), (24 bytes).
    Removing stm32f10x_adc.o(i.ADC_RegularChannelConfig), (184 bytes).
    Removing stm32f10x_adc.o(i.ADC_ResetCalibration), (10 bytes).
    Removing stm32f10x_adc.o(i.ADC_SetInjectedOffset), (20 bytes).
    Removing stm32f10x_adc.o(i.ADC_SoftwareStartConvCmd), (22 bytes).
    Removing stm32f10x_adc.o(i.ADC_SoftwareStartInjectedConvCmd), (22 bytes).
    Removing stm32f10x_adc.o(i.ADC_StartCalibration), (10 bytes).
    Removing stm32f10x_adc.o(i.ADC_StructInit), (18 bytes).
    Removing stm32f10x_adc.o(i.ADC_TempSensorVrefintCmd), (36 bytes).
    Removing stm32f10x_bkp.o(i.BKP_ClearFlag), (20 bytes).
    Removing stm32f10x_bkp.o(i.BKP_ClearITPendingBit), (20 bytes).
    Removing stm32f10x_bkp.o(i.BKP_DeInit), (16 bytes).
    Removing stm32f10x_bkp.o(i.BKP_GetFlagStatus), (12 bytes).
    Removing stm32f10x_bkp.o(i.BKP_GetITStatus), (12 bytes).
    Removing stm32f10x_bkp.o(i.BKP_ITConfig), (12 bytes).
    Removing stm32f10x_bkp.o(i.BKP_RTCOutputConfig), (28 bytes).
    Removing stm32f10x_bkp.o(i.BKP_SetRTCCalibrationValue), (28 bytes).
    Removing stm32f10x_bkp.o(i.BKP_TamperPinCmd), (12 bytes).
    Removing stm32f10x_bkp.o(i.BKP_TamperPinLevelConfig), (12 bytes).
    Removing stm32f10x_can.o(i.CAN_CancelTransmit), (48 bytes).
    Removing stm32f10x_can.o(i.CAN_ClearFlag), (56 bytes).
    Removing stm32f10x_can.o(i.CAN_ClearITPendingBit), (168 bytes).
    Removing stm32f10x_can.o(i.CAN_DBGFreeze), (22 bytes).
    Removing stm32f10x_can.o(i.CAN_DeInit), (56 bytes).
    Removing stm32f10x_can.o(i.CAN_FIFORelease), (22 bytes).
    Removing stm32f10x_can.o(i.CAN_FilterInit), (264 bytes).
    Removing stm32f10x_can.o(i.CAN_GetFlagStatus), (120 bytes).
    Removing stm32f10x_can.o(i.CAN_GetITStatus), (288 bytes).
    Removing stm32f10x_can.o(i.CAN_GetLSBTransmitErrorCounter), (12 bytes).
    Removing stm32f10x_can.o(i.CAN_GetLastErrorCode), (12 bytes).
    Removing stm32f10x_can.o(i.CAN_GetReceiveErrorCounter), (10 bytes).
    Removing stm32f10x_can.o(i.CAN_ITConfig), (18 bytes).
    Removing stm32f10x_can.o(i.CAN_Init), (276 bytes).
    Removing stm32f10x_can.o(i.CAN_MessagePending), (30 bytes).
    Removing stm32f10x_can.o(i.CAN_OperatingModeRequest), (162 bytes).
    Removing stm32f10x_can.o(i.CAN_Receive), (240 bytes).
    Removing stm32f10x_can.o(i.CAN_SlaveStartBank), (52 bytes).
    Removing stm32f10x_can.o(i.CAN_Sleep), (30 bytes).
    Removing stm32f10x_can.o(i.CAN_StructInit), (32 bytes).
    Removing stm32f10x_can.o(i.CAN_TTComModeCmd), (118 bytes).
    Removing stm32f10x_can.o(i.CAN_Transmit), (294 bytes).
    Removing stm32f10x_can.o(i.CAN_TransmitStatus), (160 bytes).
    Removing stm32f10x_can.o(i.CAN_WakeUp), (48 bytes).
    Removing stm32f10x_can.o(i.CheckITStatus), (18 bytes).
    Removing stm32f10x_cec.o(i.CEC_ClearFlag), (36 bytes).
    Removing stm32f10x_cec.o(i.CEC_ClearITPendingBit), (36 bytes).
    Removing stm32f10x_cec.o(i.CEC_Cmd), (32 bytes).
    Removing stm32f10x_cec.o(i.CEC_DeInit), (22 bytes).
    Removing stm32f10x_cec.o(i.CEC_EndOfMessageCmd), (12 bytes).
    Removing stm32f10x_cec.o(i.CEC_GetFlagStatus), (48 bytes).
    Removing stm32f10x_cec.o(i.CEC_GetITStatus), (40 bytes).
    Removing stm32f10x_cec.o(i.CEC_ITConfig), (12 bytes).
    Removing stm32f10x_cec.o(i.CEC_Init), (32 bytes).
    Removing stm32f10x_cec.o(i.CEC_OwnAddressConfig), (12 bytes).
    Removing stm32f10x_cec.o(i.CEC_ReceiveDataByte), (12 bytes).
    Removing stm32f10x_cec.o(i.CEC_SendDataByte), (12 bytes).
    Removing stm32f10x_cec.o(i.CEC_SetPrescaler), (12 bytes).
    Removing stm32f10x_cec.o(i.CEC_StartOfMessage), (12 bytes).
    Removing stm32f10x_crc.o(i.CRC_CalcBlockCRC), (36 bytes).
    Removing stm32f10x_crc.o(i.CRC_CalcCRC), (16 bytes).
    Removing stm32f10x_crc.o(i.CRC_GetCRC), (12 bytes).
    Removing stm32f10x_crc.o(i.CRC_GetIDRegister), (12 bytes).
    Removing stm32f10x_crc.o(i.CRC_ResetDR), (12 bytes).
    Removing stm32f10x_crc.o(i.CRC_SetIDRegister), (12 bytes).
    Removing stm32f10x_dac.o(i.DAC_Cmd), (40 bytes).
    Removing stm32f10x_dac.o(i.DAC_DMACmd), (44 bytes).
    Removing stm32f10x_dac.o(i.DAC_DeInit), (22 bytes).
    Removing stm32f10x_dac.o(i.DAC_DualSoftwareTriggerCmd), (36 bytes).
    Removing stm32f10x_dac.o(i.DAC_GetDataOutputValue), (36 bytes).
    Removing stm32f10x_dac.o(i.DAC_Init), (52 bytes).
    Removing stm32f10x_dac.o(i.DAC_SetChannel1Data), (32 bytes).
    Removing stm32f10x_dac.o(i.DAC_SetChannel2Data), (32 bytes).
    Removing stm32f10x_dac.o(i.DAC_SetDualChannelData), (36 bytes).
    Removing stm32f10x_dac.o(i.DAC_SoftwareTriggerCmd), (44 bytes).
    Removing stm32f10x_dac.o(i.DAC_StructInit), (12 bytes).
    Removing stm32f10x_dac.o(i.DAC_WaveGenerationCmd), (40 bytes).
    Removing stm32f10x_dbgmcu.o(i.DBGMCU_Config), (32 bytes).
    Removing stm32f10x_dbgmcu.o(i.DBGMCU_GetDEVID), (16 bytes).
    Removing stm32f10x_dbgmcu.o(i.DBGMCU_GetREVID), (12 bytes).
    Removing stm32f10x_dma.o(i.DMA_ClearFlag), (28 bytes).
    Removing stm32f10x_dma.o(i.DMA_ClearITPendingBit), (28 bytes).
    Removing stm32f10x_dma.o(i.DMA_Cmd), (24 bytes).
    Removing stm32f10x_dma.o(i.DMA_DeInit), (332 bytes).
    Removing stm32f10x_dma.o(i.DMA_GetCurrDataCounter), (8 bytes).
    Removing stm32f10x_dma.o(i.DMA_GetFlagStatus), (44 bytes).
    Removing stm32f10x_dma.o(i.DMA_GetITStatus), (44 bytes).
    Removing stm32f10x_dma.o(i.DMA_ITConfig), (18 bytes).
    Removing stm32f10x_dma.o(i.DMA_Init), (60 bytes).
    Removing stm32f10x_dma.o(i.DMA_SetCurrDataCounter), (4 bytes).
    Removing stm32f10x_dma.o(i.DMA_StructInit), (26 bytes).
    Removing stm32f10x_exti.o(i.EXTI_ClearFlag), (12 bytes).
    Removing stm32f10x_exti.o(i.EXTI_ClearITPendingBit), (12 bytes).
    Removing stm32f10x_exti.o(i.EXTI_DeInit), (36 bytes).
    Removing stm32f10x_exti.o(i.EXTI_GenerateSWInterrupt), (16 bytes).
    Removing stm32f10x_exti.o(i.EXTI_GetFlagStatus), (24 bytes).
    Removing stm32f10x_exti.o(i.EXTI_GetITStatus), (40 bytes).
    Removing stm32f10x_exti.o(i.EXTI_Init), (148 bytes).
    Removing stm32f10x_exti.o(i.EXTI_StructInit), (16 bytes).
    Removing stm32f10x_flash.o(i.FLASH_ClearFlag), (12 bytes).
    Removing stm32f10x_flash.o(i.FLASH_EnableWriteProtection), (196 bytes).
    Removing stm32f10x_flash.o(i.FLASH_EraseAllBank1Pages), (72 bytes).
    Removing stm32f10x_flash.o(i.FLASH_EraseAllPages), (72 bytes).
    Removing stm32f10x_flash.o(i.FLASH_EraseOptionBytes), (168 bytes).
    Removing stm32f10x_flash.o(i.FLASH_GetFlagStatus), (48 bytes).
    Removing stm32f10x_flash.o(i.FLASH_GetPrefetchBufferStatus), (24 bytes).
    Removing stm32f10x_flash.o(i.FLASH_GetReadOutProtectionStatus), (24 bytes).
    Removing stm32f10x_flash.o(i.FLASH_GetStatus), (52 bytes).
    Removing stm32f10x_flash.o(i.FLASH_GetUserOptionByte), (12 bytes).
    Removing stm32f10x_flash.o(i.FLASH_GetWriteProtectionOptionByte), (12 bytes).
    Removing stm32f10x_flash.o(i.FLASH_HalfCycleAccessCmd), (28 bytes).
    Removing stm32f10x_flash.o(i.FLASH_ITConfig), (32 bytes).
    Removing stm32f10x_flash.o(i.FLASH_LockBank1), (20 bytes).
    Removing stm32f10x_flash.o(i.FLASH_PrefetchBufferCmd), (28 bytes).
    Removing stm32f10x_flash.o(i.FLASH_ProgramOptionByteData), (84 bytes).
    Removing stm32f10x_flash.o(i.FLASH_ProgramWord), (108 bytes).
    Removing stm32f10x_flash.o(i.FLASH_ReadOutProtection), (172 bytes).
    Removing stm32f10x_flash.o(i.FLASH_SetLatency), (24 bytes).
    Removing stm32f10x_flash.o(i.FLASH_UnlockBank1), (24 bytes).
    Removing stm32f10x_flash.o(i.FLASH_UserOptionByteConfig), (104 bytes).
    Removing stm32f10x_flash.o(i.FLASH_WaitForLastBank1Operation), (38 bytes).
    Removing stm32f10x_fsmc.o(i.FSMC_ClearFlag), (64 bytes).
    Removing stm32f10x_fsmc.o(i.FSMC_ClearITPendingBit), (72 bytes).
    Removing stm32f10x_fsmc.o(i.FSMC_GetECC), (28 bytes).
    Removing stm32f10x_fsmc.o(i.FSMC_GetFlagStatus), (56 bytes).
    Removing stm32f10x_fsmc.o(i.FSMC_GetITStatus), (68 bytes).
    Removing stm32f10x_fsmc.o(i.FSMC_ITConfig), (128 bytes).
    Removing stm32f10x_fsmc.o(i.FSMC_NANDCmd), (92 bytes).
    Removing stm32f10x_fsmc.o(i.FSMC_NANDDeInit), (68 bytes).
    Removing stm32f10x_fsmc.o(i.FSMC_NANDECCCmd), (92 bytes).
    Removing stm32f10x_fsmc.o(i.FSMC_NANDInit), (136 bytes).
    Removing stm32f10x_fsmc.o(i.FSMC_NANDStructInit), (54 bytes).
    Removing stm32f10x_fsmc.o(i.FSMC_NORSRAMCmd), (52 bytes).
    Removing stm32f10x_fsmc.o(i.FSMC_NORSRAMDeInit), (54 bytes).
    Removing stm32f10x_fsmc.o(i.FSMC_NORSRAMInit), (230 bytes).
    Removing stm32f10x_fsmc.o(i.FSMC_NORSRAMStructInit), (114 bytes).
    Removing stm32f10x_fsmc.o(i.FSMC_PCCARDCmd), (48 bytes).
    Removing stm32f10x_fsmc.o(i.FSMC_PCCARDDeInit), (40 bytes).
    Removing stm32f10x_fsmc.o(i.FSMC_PCCARDInit), (132 bytes).
    Removing stm32f10x_fsmc.o(i.FSMC_PCCARDStructInit), (60 bytes).
    Removing stm32f10x_gpio.o(i.GPIO_AFIODeInit), (20 bytes).
    Removing stm32f10x_gpio.o(i.GPIO_DeInit), (200 bytes).
    Removing stm32f10x_gpio.o(i.GPIO_ETH_MediaInterfaceConfig), (12 bytes).
    Removing stm32f10x_gpio.o(i.GPIO_EXTILineConfig), (64 bytes).
    Removing stm32f10x_gpio.o(i.GPIO_EventOutputCmd), (12 bytes).
    Removing stm32f10x_gpio.o(i.GPIO_EventOutputConfig), (32 bytes).
    Removing stm32f10x_gpio.o(i.GPIO_PinLockConfig), (18 bytes).
    Removing stm32f10x_gpio.o(i.GPIO_PinRemapConfig), (144 bytes).
    Removing stm32f10x_gpio.o(i.GPIO_ReadInputData), (8 bytes).
    Removing stm32f10x_gpio.o(i.GPIO_ReadOutputData), (8 bytes).
    Removing stm32f10x_gpio.o(i.GPIO_ReadOutputDataBit), (18 bytes).
    Removing stm32f10x_gpio.o(i.GPIO_ResetBits), (4 bytes).
    Removing stm32f10x_gpio.o(i.GPIO_SetBits), (4 bytes).
    Removing stm32f10x_gpio.o(i.GPIO_StructInit), (16 bytes).
    Removing stm32f10x_gpio.o(i.GPIO_Write), (4 bytes).
    Removing stm32f10x_i2c.o(i.I2C_ARPCmd), (24 bytes).
    Removing stm32f10x_i2c.o(i.I2C_AcknowledgeConfig), (24 bytes).
    Removing stm32f10x_i2c.o(i.I2C_CalculatePEC), (24 bytes).
    Removing stm32f10x_i2c.o(i.I2C_CheckEvent), (42 bytes).
    Removing stm32f10x_i2c.o(i.I2C_ClearFlag), (12 bytes).
    Removing stm32f10x_i2c.o(i.I2C_ClearITPendingBit), (12 bytes).
    Removing stm32f10x_i2c.o(i.I2C_Cmd), (24 bytes).
    Removing stm32f10x_i2c.o(i.I2C_DMACmd), (24 bytes).
    Removing stm32f10x_i2c.o(i.I2C_DMALastTransferCmd), (24 bytes).
    Removing stm32f10x_i2c.o(i.I2C_DeInit), (56 bytes).
    Removing stm32f10x_i2c.o(i.I2C_DualAddressCmd), (24 bytes).
    Removing stm32f10x_i2c.o(i.I2C_FastModeDutyCycleConfig), (28 bytes).
    Removing stm32f10x_i2c.o(i.I2C_GeneralCallCmd), (24 bytes).
    Removing stm32f10x_i2c.o(i.I2C_GenerateSTART), (24 bytes).
    Removing stm32f10x_i2c.o(i.I2C_GenerateSTOP), (24 bytes).
    Removing stm32f10x_i2c.o(i.I2C_GetFlagStatus), (58 bytes).
    Removing stm32f10x_i2c.o(i.I2C_GetITStatus), (38 bytes).
    Removing stm32f10x_i2c.o(i.I2C_GetLastEvent), (26 bytes).
    Removing stm32f10x_i2c.o(i.I2C_GetPEC), (8 bytes).
    Removing stm32f10x_i2c.o(i.I2C_ITConfig), (18 bytes).
    Removing stm32f10x_i2c.o(i.I2C_Init), (236 bytes).
    Removing stm32f10x_i2c.o(i.I2C_NACKPositionConfig), (28 bytes).
    Removing stm32f10x_i2c.o(i.I2C_OwnAddress2Config), (22 bytes).
    Removing stm32f10x_i2c.o(i.I2C_PECPositionConfig), (28 bytes).
    Removing stm32f10x_i2c.o(i.I2C_ReadRegister), (22 bytes).
    Removing stm32f10x_i2c.o(i.I2C_ReceiveData), (8 bytes).
    Removing stm32f10x_i2c.o(i.I2C_SMBusAlertConfig), (28 bytes).
    Removing stm32f10x_i2c.o(i.I2C_Send7bitAddress), (18 bytes).
    Removing stm32f10x_i2c.o(i.I2C_SendData), (4 bytes).
    Removing stm32f10x_i2c.o(i.I2C_SoftwareResetCmd), (22 bytes).
    Removing stm32f10x_i2c.o(i.I2C_StretchClockCmd), (24 bytes).
    Removing stm32f10x_i2c.o(i.I2C_StructInit), (30 bytes).
    Removing stm32f10x_i2c.o(i.I2C_TransmitPEC), (24 bytes).
    Removing stm32f10x_iwdg.o(i.IWDG_GetFlagStatus), (24 bytes).
    Removing stm32f10x_pwr.o(i.PWR_ClearFlag), (20 bytes).
    Removing stm32f10x_pwr.o(i.PWR_DeInit), (22 bytes).
    Removing stm32f10x_pwr.o(i.PWR_EnterSTANDBYMode), (52 bytes).
    Removing stm32f10x_pwr.o(i.PWR_EnterSTOPMode), (64 bytes).
    Removing stm32f10x_pwr.o(i.PWR_GetFlagStatus), (24 bytes).
    Removing stm32f10x_pwr.o(i.PWR_PVDCmd), (12 bytes).
    Removing stm32f10x_pwr.o(i.PWR_PVDLevelConfig), (24 bytes).
    Removing stm32f10x_pwr.o(i.PWR_WakeUpPinCmd), (12 bytes).
    Removing stm32f10x_rcc.o(i.RCC_ADCCLKConfig), (24 bytes).
    Removing stm32f10x_rcc.o(i.RCC_AHBPeriphClockCmd), (32 bytes).
    Removing stm32f10x_rcc.o(i.RCC_APB1PeriphResetCmd), (32 bytes).
    Removing stm32f10x_rcc.o(i.RCC_APB2PeriphResetCmd), (32 bytes).
    Removing stm32f10x_rcc.o(i.RCC_AdjustHSICalibrationValue), (24 bytes).
    Removing stm32f10x_rcc.o(i.RCC_BackupResetCmd), (12 bytes).
    Removing stm32f10x_rcc.o(i.RCC_ClearITPendingBit), (12 bytes).
    Removing stm32f10x_rcc.o(i.RCC_ClockSecuritySystemCmd), (12 bytes).
    Removing stm32f10x_rcc.o(i.RCC_DeInit), (76 bytes).
    Removing stm32f10x_rcc.o(i.RCC_GetClocksFreq), (212 bytes).
    Removing stm32f10x_rcc.o(i.RCC_GetITStatus), (24 bytes).
    Removing stm32f10x_rcc.o(i.RCC_GetSYSCLKSource), (16 bytes).
    Removing stm32f10x_rcc.o(i.RCC_HCLKConfig), (24 bytes).
    Removing stm32f10x_rcc.o(i.RCC_HSEConfig), (76 bytes).
    Removing stm32f10x_rcc.o(i.RCC_HSICmd), (12 bytes).
    Removing stm32f10x_rcc.o(i.RCC_ITConfig), (32 bytes).
    Removing stm32f10x_rcc.o(i.RCC_LSICmd), (12 bytes).
    Removing stm32f10x_rcc.o(i.RCC_MCOConfig), (12 bytes).
    Removing stm32f10x_rcc.o(i.RCC_PCLK1Config), (24 bytes).
    Removing stm32f10x_rcc.o(i.RCC_PCLK2Config), (24 bytes).
    Removing stm32f10x_rcc.o(i.RCC_PLLCmd), (12 bytes).
    Removing stm32f10x_rcc.o(i.RCC_PLLConfig), (28 bytes).
    Removing stm32f10x_rcc.o(i.RCC_SYSCLKConfig), (24 bytes).
    Removing stm32f10x_rcc.o(i.RCC_USBCLKConfig), (12 bytes).
    Removing stm32f10x_rcc.o(i.RCC_WaitForHSEStartUp), (56 bytes).
    Removing stm32f10x_rcc.o(.data), (20 bytes).
    Removing stm32f10x_rtc.o(i.RTC_ClearFlag), (16 bytes).
    Removing stm32f10x_rtc.o(i.RTC_GetDivider), (24 bytes).
    Removing stm32f10x_rtc.o(i.RTC_GetFlagStatus), (24 bytes).
    Removing stm32f10x_sdio.o(i.SDIO_CEATAITCmd), (16 bytes).
    Removing stm32f10x_sdio.o(i.SDIO_ClearFlag), (12 bytes).
    Removing stm32f10x_sdio.o(i.SDIO_ClearITPendingBit), (12 bytes).
    Removing stm32f10x_sdio.o(i.SDIO_ClockCmd), (12 bytes).
    Removing stm32f10x_sdio.o(i.SDIO_CmdStructInit), (14 bytes).
    Removing stm32f10x_sdio.o(i.SDIO_CommandCompletionCmd), (12 bytes).
    Removing stm32f10x_sdio.o(i.SDIO_DMACmd), (12 bytes).
    Removing stm32f10x_sdio.o(i.SDIO_DataConfig), (48 bytes).
    Removing stm32f10x_sdio.o(i.SDIO_DataStructInit), (20 bytes).
    Removing stm32f10x_sdio.o(i.SDIO_DeInit), (36 bytes).
    Removing stm32f10x_sdio.o(i.SDIO_GetCommandResponse), (12 bytes).
    Removing stm32f10x_sdio.o(i.SDIO_GetDataCounter), (12 bytes).
    Removing stm32f10x_sdio.o(i.SDIO_GetFIFOCount), (12 bytes).
    Removing stm32f10x_sdio.o(i.SDIO_GetFlagStatus), (24 bytes).
    Removing stm32f10x_sdio.o(i.SDIO_GetITStatus), (24 bytes).
    Removing stm32f10x_sdio.o(i.SDIO_GetPowerState), (16 bytes).
    Removing stm32f10x_sdio.o(i.SDIO_GetResponse), (24 bytes).
    Removing stm32f10x_sdio.o(i.SDIO_ITConfig), (32 bytes).
    Removing stm32f10x_sdio.o(i.SDIO_Init), (48 bytes).
    Removing stm32f10x_sdio.o(i.SDIO_ReadData), (12 bytes).
    Removing stm32f10x_sdio.o(i.SDIO_SendCEATACmd), (12 bytes).
    Removing stm32f10x_sdio.o(i.SDIO_SendCommand), (44 bytes).
    Removing stm32f10x_sdio.o(i.SDIO_SendSDIOSuspendCmd), (12 bytes).
    Removing stm32f10x_sdio.o(i.SDIO_SetPowerState), (28 bytes).
    Removing stm32f10x_sdio.o(i.SDIO_SetSDIOOperation), (12 bytes).
    Removing stm32f10x_sdio.o(i.SDIO_SetSDIOReadWaitMode), (12 bytes).
    Removing stm32f10x_sdio.o(i.SDIO_StartSDIOReadWait), (12 bytes).
    Removing stm32f10x_sdio.o(i.SDIO_StopSDIOReadWait), (12 bytes).
    Removing stm32f10x_sdio.o(i.SDIO_StructInit), (16 bytes).
    Removing stm32f10x_sdio.o(i.SDIO_WriteData), (12 bytes).
    Removing stm32f10x_spi.o(i.I2S_Cmd), (24 bytes).
    Removing stm32f10x_spi.o(i.I2S_Init), (232 bytes).
    Removing stm32f10x_spi.o(i.I2S_StructInit), (20 bytes).
    Removing stm32f10x_spi.o(i.SPI_BiDirectionalLineConfig), (28 bytes).
    Removing stm32f10x_spi.o(i.SPI_CalculateCRC), (24 bytes).
    Removing stm32f10x_spi.o(i.SPI_Cmd), (24 bytes).
    Removing stm32f10x_spi.o(i.SPI_DataSizeConfig), (18 bytes).
    Removing stm32f10x_spi.o(i.SPI_GetCRC), (16 bytes).
    Removing stm32f10x_spi.o(i.SPI_GetCRCPolynomial), (6 bytes).
    Removing stm32f10x_spi.o(i.SPI_I2S_ClearFlag), (6 bytes).
    Removing stm32f10x_spi.o(i.SPI_I2S_ClearITPendingBit), (20 bytes).
    Removing stm32f10x_spi.o(i.SPI_I2S_DMACmd), (18 bytes).
    Removing stm32f10x_spi.o(i.SPI_I2S_DeInit), (88 bytes).
    Removing stm32f10x_spi.o(i.SPI_I2S_GetFlagStatus), (18 bytes).
    Removing stm32f10x_spi.o(i.SPI_I2S_GetITStatus), (52 bytes).
    Removing stm32f10x_spi.o(i.SPI_I2S_ITConfig), (32 bytes).
    Removing stm32f10x_spi.o(i.SPI_I2S_ReceiveData), (6 bytes).
    Removing stm32f10x_spi.o(i.SPI_I2S_SendData), (4 bytes).
    Removing stm32f10x_spi.o(i.SPI_Init), (60 bytes).
    Removing stm32f10x_spi.o(i.SPI_NSSInternalSoftwareConfig), (30 bytes).
    Removing stm32f10x_spi.o(i.SPI_SSOutputCmd), (24 bytes).
    Removing stm32f10x_spi.o(i.SPI_StructInit), (24 bytes).
    Removing stm32f10x_spi.o(i.SPI_TransmitCRC), (10 bytes).
    Removing stm32f10x_tim.o(i.TIM_ARRPreloadConfig), (24 bytes).
    Removing stm32f10x_tim.o(i.TIM_BDTRConfig), (32 bytes).
    Removing stm32f10x_tim.o(i.TIM_BDTRStructInit), (18 bytes).
    Removing stm32f10x_tim.o(i.TIM_CCPreloadControl), (24 bytes).
    Removing stm32f10x_tim.o(i.TIM_CCxCmd), (30 bytes).
    Removing stm32f10x_tim.o(i.TIM_CCxNCmd), (30 bytes).
    Removing stm32f10x_tim.o(i.TIM_ClearOC1Ref), (18 bytes).
    Removing stm32f10x_tim.o(i.TIM_ClearOC2Ref), (24 bytes).
    Removing stm32f10x_tim.o(i.TIM_ClearOC3Ref), (18 bytes).
    Removing stm32f10x_tim.o(i.TIM_ClearOC4Ref), (24 bytes).
    Removing stm32f10x_tim.o(i.TIM_CounterModeConfig), (18 bytes).
    Removing stm32f10x_tim.o(i.TIM_CtrlPWMOutputs), (30 bytes).
    Removing stm32f10x_tim.o(i.TIM_DMACmd), (18 bytes).
    Removing stm32f10x_tim.o(i.TIM_DMAConfig), (10 bytes).
    Removing stm32f10x_tim.o(i.TIM_DeInit), (488 bytes).
    Removing stm32f10x_tim.o(i.TIM_ETRClockMode1Config), (54 bytes).
    Removing stm32f10x_tim.o(i.TIM_ETRClockMode2Config), (32 bytes).
    Removing stm32f10x_tim.o(i.TIM_ETRConfig), (28 bytes).
    Removing stm32f10x_tim.o(i.TIM_ForcedOC1Config), (18 bytes).
    Removing stm32f10x_tim.o(i.TIM_ForcedOC2Config), (26 bytes).
    Removing stm32f10x_tim.o(i.TIM_ForcedOC3Config), (18 bytes).
    Removing stm32f10x_tim.o(i.TIM_ForcedOC4Config), (26 bytes).
    Removing stm32f10x_tim.o(i.TIM_GenerateEvent), (4 bytes).
    Removing stm32f10x_tim.o(i.TIM_GetCapture1), (6 bytes).
    Removing stm32f10x_tim.o(i.TIM_GetCapture2), (6 bytes).
    Removing stm32f10x_tim.o(i.TIM_GetCapture3), (6 bytes).
    Removing stm32f10x_tim.o(i.TIM_GetCapture4), (8 bytes).
    Removing stm32f10x_tim.o(i.TIM_GetFlagStatus), (18 bytes).
    Removing stm32f10x_tim.o(i.TIM_GetPrescaler), (6 bytes).
    Removing stm32f10x_tim.o(i.TIM_ITRxExternalClockConfig), (24 bytes).
    Removing stm32f10x_tim.o(i.TIM_OC1FastConfig), (18 bytes).
    Removing stm32f10x_tim.o(i.TIM_OC1Init), (152 bytes).
    Removing stm32f10x_tim.o(i.TIM_OC1NPolarityConfig), (18 bytes).
    Removing stm32f10x_tim.o(i.TIM_OC1PolarityConfig), (18 bytes).
    Removing stm32f10x_tim.o(i.TIM_OC1PreloadConfig), (18 bytes).
    Removing stm32f10x_tim.o(i.TIM_OC2FastConfig), (26 bytes).
    Removing stm32f10x_tim.o(i.TIM_OC2Init), (164 bytes).
    Removing stm32f10x_tim.o(i.TIM_OC2NPolarityConfig), (26 bytes).
    Removing stm32f10x_tim.o(i.TIM_OC2PolarityConfig), (26 bytes).
    Removing stm32f10x_tim.o(i.TIM_OC2PreloadConfig), (26 bytes).
    Removing stm32f10x_tim.o(i.TIM_OC3FastConfig), (18 bytes).
    Removing stm32f10x_tim.o(i.TIM_OC3Init), (160 bytes).
    Removing stm32f10x_tim.o(i.TIM_OC3NPolarityConfig), (26 bytes).
    Removing stm32f10x_tim.o(i.TIM_OC3PolarityConfig), (26 bytes).
    Removing stm32f10x_tim.o(i.TIM_OC3PreloadConfig), (18 bytes).
    Removing stm32f10x_tim.o(i.TIM_OC4FastConfig), (26 bytes).
    Removing stm32f10x_tim.o(i.TIM_OC4Init), (124 bytes).
    Removing stm32f10x_tim.o(i.TIM_OC4PolarityConfig), (26 bytes).
    Removing stm32f10x_tim.o(i.TIM_OC4PreloadConfig), (26 bytes).
    Removing stm32f10x_tim.o(i.TIM_OCStructInit), (20 bytes).
    Removing stm32f10x_tim.o(i.TIM_PWMIConfig), (124 bytes).
    Removing stm32f10x_tim.o(i.TIM_PrescalerConfig), (6 bytes).
    Removing stm32f10x_tim.o(i.TIM_SelectCCDMA), (24 bytes).
    Removing stm32f10x_tim.o(i.TIM_SelectCOM), (24 bytes).
    Removing stm32f10x_tim.o(i.TIM_SelectHallSensor), (24 bytes).
    Removing stm32f10x_tim.o(i.TIM_SelectInputTrigger), (18 bytes).
    Removing stm32f10x_tim.o(i.TIM_SelectMasterSlaveMode), (18 bytes).
    Removing stm32f10x_tim.o(i.TIM_SelectOCxM), (82 bytes).
    Removing stm32f10x_tim.o(i.TIM_SelectOnePulseMode), (18 bytes).
    Removing stm32f10x_tim.o(i.TIM_SelectOutputTrigger), (18 bytes).
    Removing stm32f10x_tim.o(i.TIM_SelectSlaveMode), (18 bytes).
    Removing stm32f10x_tim.o(i.TIM_SetAutoreload), (4 bytes).
    Removing stm32f10x_tim.o(i.TIM_SetClockDivision), (18 bytes).
    Removing stm32f10x_tim.o(i.TIM_SetCompare1), (4 bytes).
    Removing stm32f10x_tim.o(i.TIM_SetCompare2), (4 bytes).
    Removing stm32f10x_tim.o(i.TIM_SetCompare3), (4 bytes).
    Removing stm32f10x_tim.o(i.TIM_SetCompare4), (6 bytes).
    Removing stm32f10x_tim.o(i.TIM_TIxExternalClockConfig), (62 bytes).
    Removing stm32f10x_tim.o(i.TIM_TimeBaseStructInit), (18 bytes).
    Removing stm32f10x_tim.o(i.TIM_UpdateDisableConfig), (24 bytes).
    Removing stm32f10x_tim.o(i.TIM_UpdateRequestConfig), (24 bytes).
    Removing stm32f10x_usart.o(i.USART_ClearFlag), (18 bytes).
    Removing stm32f10x_usart.o(i.USART_ClearITPendingBit), (30 bytes).
    Removing stm32f10x_usart.o(i.USART_ClockInit), (34 bytes).
    Removing stm32f10x_usart.o(i.USART_ClockStructInit), (12 bytes).
    Removing stm32f10x_usart.o(i.USART_Cmd), (24 bytes).
    Removing stm32f10x_usart.o(i.USART_DMACmd), (18 bytes).
    Removing stm32f10x_usart.o(i.USART_DeInit), (156 bytes).
    Removing stm32f10x_usart.o(i.USART_GetFlagStatus), (26 bytes).
    Removing stm32f10x_usart.o(i.USART_GetITStatus), (84 bytes).
    Removing stm32f10x_usart.o(i.USART_HalfDuplexCmd), (24 bytes).
    Removing stm32f10x_usart.o(i.USART_ITConfig), (74 bytes).
    Removing stm32f10x_usart.o(i.USART_Init), (216 bytes).
    Removing stm32f10x_usart.o(i.USART_IrDACmd), (24 bytes).
    Removing stm32f10x_usart.o(i.USART_IrDAConfig), (18 bytes).
    Removing stm32f10x_usart.o(i.USART_LINBreakDetectLengthConfig), (18 bytes).
    Removing stm32f10x_usart.o(i.USART_LINCmd), (24 bytes).
    Removing stm32f10x_usart.o(i.USART_OneBitMethodCmd), (24 bytes).
    Removing stm32f10x_usart.o(i.USART_OverSampling8Cmd), (22 bytes).
    Removing stm32f10x_usart.o(i.USART_ReceiveData), (10 bytes).
    Removing stm32f10x_usart.o(i.USART_ReceiverWakeUpCmd), (24 bytes).
    Removing stm32f10x_usart.o(i.USART_SendBreak), (10 bytes).
    Removing stm32f10x_usart.o(i.USART_SendData), (8 bytes).
    Removing stm32f10x_usart.o(i.USART_SetAddress), (18 bytes).
    Removing stm32f10x_usart.o(i.USART_SetGuardTime), (16 bytes).
    Removing stm32f10x_usart.o(i.USART_SetPrescaler), (16 bytes).
    Removing stm32f10x_usart.o(i.USART_SmartCardCmd), (24 bytes).
    Removing stm32f10x_usart.o(i.USART_SmartCardNACKCmd), (24 bytes).
    Removing stm32f10x_usart.o(i.USART_StructInit), (24 bytes).
    Removing stm32f10x_usart.o(i.USART_WakeUpConfig), (18 bytes).
    Removing stm32f10x_wwdg.o(i.WWDG_ClearFlag), (12 bytes).
    Removing stm32f10x_wwdg.o(i.WWDG_DeInit), (22 bytes).
    Removing stm32f10x_wwdg.o(i.WWDG_Enable), (16 bytes).
    Removing stm32f10x_wwdg.o(i.WWDG_EnableIT), (12 bytes).
    Removing stm32f10x_wwdg.o(i.WWDG_GetFlagStatus), (12 bytes).
    Removing stm32f10x_wwdg.o(i.WWDG_SetCounter), (16 bytes).
    Removing stm32f10x_wwdg.o(i.WWDG_SetPrescaler), (24 bytes).
    Removing stm32f10x_wwdg.o(i.WWDG_SetWindowValue), (40 bytes).
    Removing delay.o(i.Delay_s), (24 bytes).
    Removing myflash.o(i.MyFLASH_EraseAllPages), (16 bytes).
    Removing myflash.o(i.MyFLASH_ProgramWord), (24 bytes).
    Removing myflash.o(i.MyFLASH_ReadByte), (6 bytes).
    Removing myflash.o(i.MyFLASH_ReadWord), (6 bytes).
    Removing store.o(i.Store_Clear), (36 bytes).
    Removing oled.o(i.OLED_DrawArc), (618 bytes).
    Removing oled.o(i.OLED_DrawCircle), (352 bytes).
    Removing oled.o(i.OLED_DrawEllipse), (812 bytes).
    Removing oled.o(i.OLED_DrawTriangle), (232 bytes).
    Removing oled.o(i.OLED_GetPoint), (68 bytes).
    Removing oled.o(i.OLED_IsInAngle), (124 bytes).
    Removing oled.o(i.OLED_Pow), (20 bytes).
    Removing oled.o(i.OLED_Reverse), (52 bytes).
    Removing oled.o(i.OLED_ShowBinNum), (70 bytes).
    Removing oled.o(i.OLED_ShowFloatNum), (210 bytes).
    Removing oled.o(i.OLED_ShowHexNum), (96 bytes).
    Removing oled.o(i.OLED_ShowNum), (76 bytes).
    Removing oled.o(i.OLED_ShowSignedNum), (112 bytes).
    Removing oled.o(i.OLED_pnpoly), (140 bytes).
    Removing menu.o(i.Menu_GetChild), (12 bytes).
    Removing menu.o(i.Menu_GetCurrent), (12 bytes).
    Removing menu.o(i.Menu_SetFunsion), (4 bytes).
    Removing menu.o(i.Menu_SetIcon), (4 bytes).
    Removing menu.o(i.Menu_SetLast), (6 bytes).
    Removing menu.o(i.Menu_SetName), (4 bytes).

445 unused section(s) (total 19994 bytes) removed from the image.

==============================================================================

Image Symbol Table

    Local Symbols

    Symbol Name                              Value     Ov Type        Size  Object(Section)

    ../clib/angel/boardlib.s                 0x00000000   Number         0  boardshut.o ABSOLUTE
    ../clib/angel/boardlib.s                 0x00000000   Number         0  boardinit3.o ABSOLUTE
    ../clib/angel/boardlib.s                 0x00000000   Number         0  boardinit2.o ABSOLUTE
    ../clib/angel/boardlib.s                 0x00000000   Number         0  boardinit1.o ABSOLUTE
    ../clib/angel/handlers.s                 0x00000000   Number         0  __scatter_zi.o ABSOLUTE
    ../clib/angel/handlers.s                 0x00000000   Number         0  __scatter_copy.o ABSOLUTE
    ../clib/angel/kernel.s                   0x00000000   Number         0  __rtentry.o ABSOLUTE
    ../clib/angel/kernel.s                   0x00000000   Number         0  rtexit2.o ABSOLUTE
    ../clib/angel/kernel.s                   0x00000000   Number         0  __rtentry4.o ABSOLUTE
    ../clib/angel/kernel.s                   0x00000000   Number         0  __rtentry2.o ABSOLUTE
    ../clib/angel/kernel.s                   0x00000000   Number         0  rtexit.o ABSOLUTE
    ../clib/angel/rt.s                       0x00000000   Number         0  rt_ctype_table.o ABSOLUTE
    ../clib/angel/rt.s                       0x00000000   Number         0  rt_locale.o ABSOLUTE
    ../clib/angel/rt.s                       0x00000000   Number         0  rt_errno_addr_intlibspace.o ABSOLUTE
    ../clib/angel/rt.s                       0x00000000   Number         0  rt_locale_intlibspace.o ABSOLUTE
    ../clib/angel/rt.s                       0x00000000   Number         0  rt_raise.o ABSOLUTE
    ../clib/angel/rt.s                       0x00000000   Number         0  rt_errno_addr.o ABSOLUTE
    ../clib/angel/scatter.s                  0x00000000   Number         0  __scatter.o ABSOLUTE
    ../clib/angel/startup.s                  0x00000000   Number         0  __main.o ABSOLUTE
    ../clib/angel/sys.s                      0x00000000   Number         0  sys_stackheap_outer.o ABSOLUTE
    ../clib/angel/sys.s                      0x00000000   Number         0  indicate_semi.o ABSOLUTE
    ../clib/angel/sys.s                      0x00000000   Number         0  libspace.o ABSOLUTE
    ../clib/angel/sys.s                      0x00000000   Number         0  use_no_semi.o ABSOLUTE
    ../clib/angel/sysapp.c                   0x00000000   Number         0  sys_wrch.o ABSOLUTE
    ../clib/angel/sysapp.c                   0x00000000   Number         0  sys_exit.o ABSOLUTE
    ../clib/angel/sysapp.c                   0x00000000   Number         0  sys_command.o ABSOLUTE
    ../clib/armsys.c                         0x00000000   Number         0  argv_veneer.o ABSOLUTE
    ../clib/armsys.c                         0x00000000   Number         0  _get_argv_nomalloc.o ABSOLUTE
    ../clib/armsys.c                         0x00000000   Number         0  no_argv.o ABSOLUTE
    ../clib/armsys.c                         0x00000000   Number         0  argv_veneer.o ABSOLUTE
    ../clib/bigflt.c                         0x00000000   Number         0  bigflt0.o ABSOLUTE
    ../clib/btod.s                           0x00000000   Number         0  btod.o ABSOLUTE
    ../clib/fenv.c                           0x00000000   Number         0  _rserrno.o ABSOLUTE
    ../clib/heapalloc.c                      0x00000000   Number         0  hrguard.o ABSOLUTE
    ../clib/heapaux.c                        0x00000000   Number         0  heapauxi.o ABSOLUTE
    ../clib/libinit.s                        0x00000000   Number         0  libshutdown.o ABSOLUTE
    ../clib/libinit.s                        0x00000000   Number         0  libinit.o ABSOLUTE
    ../clib/libinit.s                        0x00000000   Number         0  libinit2.o ABSOLUTE
    ../clib/libinit.s                        0x00000000   Number         0  libshutdown2.o ABSOLUTE
    ../clib/locale.c                         0x00000000   Number         0  _wcrtomb.o ABSOLUTE
    ../clib/locale.s                         0x00000000   Number         0  lc_ctype_c.o ABSOLUTE
    ../clib/locale.s                         0x00000000   Number         0  lc_numeric_c.o ABSOLUTE
    ../clib/longlong.s                       0x00000000   Number         0  lludiv10.o ABSOLUTE
    ../clib/memcpset.s                       0x00000000   Number         0  rt_memclr_w.o ABSOLUTE
    ../clib/memcpset.s                       0x00000000   Number         0  rt_memcpy_w.o ABSOLUTE
    ../clib/memcpset.s                       0x00000000   Number         0  strcmpv7m.o ABSOLUTE
    ../clib/misc.s                           0x00000000   Number         0  printf_stubs.o ABSOLUTE
    ../clib/printf.c                         0x00000000   Number         0  __printf_flags.o ABSOLUTE
    ../clib/printf.c                         0x00000000   Number         0  _printf_hex_int_ll_ptr.o ABSOLUTE
    ../clib/printf.c                         0x00000000   Number         0  _printf_hex_int_ptr.o ABSOLUTE
    ../clib/printf.c                         0x00000000   Number         0  _printf_hex_ptr.o ABSOLUTE
    ../clib/printf.c                         0x00000000   Number         0  _printf_hex_int_ll.o ABSOLUTE
    ../clib/printf.c                         0x00000000   Number         0  _printf_hex_int.o ABSOLUTE
    ../clib/printf.c                         0x00000000   Number         0  _printf_hex_ll.o ABSOLUTE
    ../clib/printf.c                         0x00000000   Number         0  _printf_oct_int_ll.o ABSOLUTE
    ../clib/printf.c                         0x00000000   Number         0  _printf_oct_int.o ABSOLUTE
    ../clib/printf.c                         0x00000000   Number         0  _printf_oct_ll.o ABSOLUTE
    ../clib/printf.c                         0x00000000   Number         0  vsprintf.o ABSOLUTE
    ../clib/printf.c                         0x00000000   Number         0  _printf_longlong_dec.o ABSOLUTE
    ../clib/printf.c                         0x00000000   Number         0  _printf_wctomb.o ABSOLUTE
    ../clib/printf.c                         0x00000000   Number         0  _sputc.o ABSOLUTE
    ../clib/printf.c                         0x00000000   Number         0  _printf_char_common.o ABSOLUTE
    ../clib/printf.c                         0x00000000   Number         0  _printf_hex_ll_ptr.o ABSOLUTE
    ../clib/printf.c                         0x00000000   Number         0  _printf_charcount.o ABSOLUTE
    ../clib/printf.c                         0x00000000   Number         0  _printf_dec.o ABSOLUTE
    ../clib/printf.c                         0x00000000   Number         0  _printf_intcommon.o ABSOLUTE
    ../clib/printf.c                         0x00000000   Number         0  _printf_str.o ABSOLUTE
    ../clib/printf.c                         0x00000000   Number         0  _printf_fp_dec.o ABSOLUTE
    ../clib/printf.c                         0x00000000   Number         0  _printf_truncate.o ABSOLUTE
    ../clib/printf.c                         0x00000000   Number         0  _printf_pad.o ABSOLUTE
    ../clib/printf.c                         0x00000000   Number         0  _printf_fp_hex.o ABSOLUTE
    ../clib/printf.c                         0x00000000   Number         0  __printf.o ABSOLUTE
    ../clib/printf.c                         0x00000000   Number         0  __printf_flags_ss_wp.o ABSOLUTE
    ../clib/printf.c                         0x00000000   Number         0  __printf_ss_wp.o ABSOLUTE
    ../clib/printf.c                         0x00000000   Number         0  __printf_nopercent.o ABSOLUTE
    ../clib/printf.c                         0x00000000   Number         0  _printf_char.o ABSOLUTE
    ../clib/printf.c                         0x00000000   Number         0  __printf_flags_wp.o ABSOLUTE
    ../clib/printf.c                         0x00000000   Number         0  _printf_wchar.o ABSOLUTE
    ../clib/printf.c                         0x00000000   Number         0  __printf_wp.o ABSOLUTE
    ../clib/printf.c                         0x00000000   Number         0  __printf_flags_ss.o ABSOLUTE
    ../clib/printf.c                         0x00000000   Number         0  __printf_ss.o ABSOLUTE
    ../clib/printf.c                         0x00000000   Number         0  _printf_fp_infnan.o ABSOLUTE
    ../clib/printf_percent.s                 0x00000000   Number         0  _printf_c.o ABSOLUTE
    ../clib/printf_percent.s                 0x00000000   Number         0  _printf_u.o ABSOLUTE
    ../clib/printf_percent.s                 0x00000000   Number         0  _printf_n.o ABSOLUTE
    ../clib/printf_percent.s                 0x00000000   Number         0  _printf_f.o ABSOLUTE
    ../clib/printf_percent.s                 0x00000000   Number         0  _printf_e.o ABSOLUTE
    ../clib/printf_percent.s                 0x00000000   Number         0  _printf_i.o ABSOLUTE
    ../clib/printf_percent.s                 0x00000000   Number         0  _printf_g.o ABSOLUTE
    ../clib/printf_percent.s                 0x00000000   Number         0  _printf_a.o ABSOLUTE
    ../clib/printf_percent.s                 0x00000000   Number         0  _printf_percent.o ABSOLUTE
    ../clib/printf_percent.s                 0x00000000   Number         0  _printf_lli.o ABSOLUTE
    ../clib/printf_percent.s                 0x00000000   Number         0  _printf_lld.o ABSOLUTE
    ../clib/printf_percent.s                 0x00000000   Number         0  _printf_llu.o ABSOLUTE
    ../clib/printf_percent.s                 0x00000000   Number         0  _printf_l.o ABSOLUTE
    ../clib/printf_percent.s                 0x00000000   Number         0  _printf_llx.o ABSOLUTE
    ../clib/printf_percent.s                 0x00000000   Number         0  _printf_p.o ABSOLUTE
    ../clib/printf_percent.s                 0x00000000   Number         0  _printf_lc.o ABSOLUTE
    ../clib/printf_percent.s                 0x00000000   Number         0  _printf_percent_end.o ABSOLUTE
    ../clib/printf_percent.s                 0x00000000   Number         0  _printf_ls.o ABSOLUTE
    ../clib/printf_percent.s                 0x00000000   Number         0  _printf_s.o ABSOLUTE
    ../clib/printf_percent.s                 0x00000000   Number         0  _printf_llo.o ABSOLUTE
    ../clib/printf_percent.s                 0x00000000   Number         0  _printf_d.o ABSOLUTE
    ../clib/printf_percent.s                 0x00000000   Number         0  _printf_ll.o ABSOLUTE
    ../clib/printf_percent.s                 0x00000000   Number         0  _printf_x.o ABSOLUTE
    ../clib/printf_percent.s                 0x00000000   Number         0  _printf_o.o ABSOLUTE
    ../clib/signal.c                         0x00000000   Number         0  defsig_rtmem_formal.o ABSOLUTE
    ../clib/signal.c                         0x00000000   Number         0  __raise.o ABSOLUTE
    ../clib/signal.c                         0x00000000   Number         0  defsig_rtmem_outer.o ABSOLUTE
    ../clib/signal.c                         0x00000000   Number         0  defsig_segv_inner.o ABSOLUTE
    ../clib/signal.c                         0x00000000   Number         0  defsig_exit.o ABSOLUTE
    ../clib/signal.c                         0x00000000   Number         0  defsig_other.o ABSOLUTE
    ../clib/signal.c                         0x00000000   Number         0  defsig_rtmem_inner.o ABSOLUTE
    ../clib/signal.c                         0x00000000   Number         0  defsig_abrt_inner.o ABSOLUTE
    ../clib/signal.c                         0x00000000   Number         0  defsig_rtred_inner.o ABSOLUTE
    ../clib/signal.c                         0x00000000   Number         0  defsig_stak_inner.o ABSOLUTE
    ../clib/signal.c                         0x00000000   Number         0  defsig_pvfn_inner.o ABSOLUTE
    ../clib/signal.c                         0x00000000   Number         0  defsig_fpe_inner.o ABSOLUTE
    ../clib/signal.c                         0x00000000   Number         0  defsig_cppl_inner.o ABSOLUTE
    ../clib/signal.c                         0x00000000   Number         0  defsig_general.o ABSOLUTE
    ../clib/signal.s                         0x00000000   Number         0  defsig.o ABSOLUTE
    ../clib/stdlib.c                         0x00000000   Number         0  rand.o ABSOLUTE
    ../clib/stdlib.c                         0x00000000   Number         0  rand.o ABSOLUTE
    ../clib/stdlib.c                         0x00000000   Number         0  exit.o ABSOLUTE
    ../clib/string.c                         0x00000000   Number         0  strlen.o ABSOLUTE
    ../clib/time.c                           0x00000000   Number         0  localtime.o ABSOLUTE
    ../clib/time.c                           0x00000000   Number         0  localtime_internal.o ABSOLUTE
    ../clib/time.c                           0x00000000   Number         0  _monlen.o ABSOLUTE
    ../clib/time.c                           0x00000000   Number         0  mktime.o ABSOLUTE
    ../fplib/d2f.s                           0x00000000   Number         0  d2f.o ABSOLUTE
    ../fplib/daddsub.s                       0x00000000   Number         0  daddsub_clz.o ABSOLUTE
    ../fplib/dcheck1.s                       0x00000000   Number         0  dcheck1.o ABSOLUTE
    ../fplib/dcmpi.s                         0x00000000   Number         0  dcmpi.o ABSOLUTE
    ../fplib/ddiv.s                          0x00000000   Number         0  ddiv.o ABSOLUTE
    ../fplib/dfix.s                          0x00000000   Number         0  dfix.o ABSOLUTE
    ../fplib/dfixu.s                         0x00000000   Number         0  dfixu.o ABSOLUTE
    ../fplib/dflt.s                          0x00000000   Number         0  dflt_clz.o ABSOLUTE
    ../fplib/dleqf.s                         0x00000000   Number         0  dleqf.o ABSOLUTE
    ../fplib/dmul.s                          0x00000000   Number         0  dmul.o ABSOLUTE
    ../fplib/dnaninf.s                       0x00000000   Number         0  dnaninf.o ABSOLUTE
    ../fplib/dretinf.s                       0x00000000   Number         0  dretinf.o ABSOLUTE
    ../fplib/drleqf.s                        0x00000000   Number         0  drleqf.o ABSOLUTE
    ../fplib/drnd.s                          0x00000000   Number         0  drnd.o ABSOLUTE
    ../fplib/faddsub.s                       0x00000000   Number         0  faddsub_clz.o ABSOLUTE
    ../fplib/fcmpi.s                         0x00000000   Number         0  fcmpi.o ABSOLUTE
    ../fplib/feqf.s                          0x00000000   Number         0  feqf.o ABSOLUTE
    ../fplib/ffixu.s                         0x00000000   Number         0  ffixu.o ABSOLUTE
    ../fplib/fflt.s                          0x00000000   Number         0  fflt_clz.o ABSOLUTE
    ../fplib/fleqf.s                         0x00000000   Number         0  fleqf.o ABSOLUTE
    ../fplib/fmul.s                          0x00000000   Number         0  fmul.o ABSOLUTE
    ../fplib/fnaninf.s                       0x00000000   Number         0  fnaninf.o ABSOLUTE
    ../fplib/fpinit.s                        0x00000000   Number         0  fpinit.o ABSOLUTE
    ../fplib/fretinf.s                       0x00000000   Number         0  fretinf.o ABSOLUTE
    ../fplib/istatus.s                       0x00000000   Number         0  istatus.o ABSOLUTE
    ../fplib/printf1.s                       0x00000000   Number         0  printf1.o ABSOLUTE
    ../fplib/printf2.s                       0x00000000   Number         0  printf2.o ABSOLUTE
    ../fplib/printf2a.s                      0x00000000   Number         0  printf2a.o ABSOLUTE
    ../fplib/printf2b.s                      0x00000000   Number         0  printf2b.o ABSOLUTE
    ../fplib/retnan.s                        0x00000000   Number         0  retnan.o ABSOLUTE
    ../fplib/scalbn.s                        0x00000000   Number         0  scalbn.o ABSOLUTE
    ../fplib/trapv.s                         0x00000000   Number         0  trapv.o ABSOLUTE
    ../fplib/usenofp.s                       0x00000000   Number         0  usenofp.o ABSOLUTE
    ../mathlib/atan.c                        0x00000000   Number         0  atan_x.o ABSOLUTE
    ../mathlib/atan.c                        0x00000000   Number         0  atan.o ABSOLUTE
    ../mathlib/atan2.c                       0x00000000   Number         0  atan2_x.o ABSOLUTE
    ../mathlib/atan2.c                       0x00000000   Number         0  atan2.o ABSOLUTE
    ../mathlib/dunder.c                      0x00000000   Number         0  dunder.o ABSOLUTE
    ../mathlib/fpclassify.c                  0x00000000   Number         0  fpclassify.o ABSOLUTE
    ../mathlib/poly.c                        0x00000000   Number         0  poly.o ABSOLUTE
    ../mathlib/qnan.c                        0x00000000   Number         0  qnan.o ABSOLUTE
    ../mathlib/round.c                       0x00000000   Number         0  round.o ABSOLUTE
    GUI\GUI.c                                0x00000000   Number         0  gui.o ABSOLUTE
    Hardware\Encoder.c                       0x00000000   Number         0  encoder.o ABSOLUTE
    Hardware\Key.c                           0x00000000   Number         0  key.o ABSOLUTE
    Hardware\OLED.c                          0x00000000   Number         0  oled.o ABSOLUTE
    Hardware\OLED_Data.c                     0x00000000   Number         0  oled_data.o ABSOLUTE
    Hardware\Timer.c                         0x00000000   Number         0  timer.o ABSOLUTE
    Library\misc.c                           0x00000000   Number         0  misc.o ABSOLUTE
    Library\stm32f10x_adc.c                  0x00000000   Number         0  stm32f10x_adc.o ABSOLUTE
    Library\stm32f10x_bkp.c                  0x00000000   Number         0  stm32f10x_bkp.o ABSOLUTE
    Library\stm32f10x_can.c                  0x00000000   Number         0  stm32f10x_can.o ABSOLUTE
    Library\stm32f10x_cec.c                  0x00000000   Number         0  stm32f10x_cec.o ABSOLUTE
    Library\stm32f10x_crc.c                  0x00000000   Number         0  stm32f10x_crc.o ABSOLUTE
    Library\stm32f10x_dac.c                  0x00000000   Number         0  stm32f10x_dac.o ABSOLUTE
    Library\stm32f10x_dbgmcu.c               0x00000000   Number         0  stm32f10x_dbgmcu.o ABSOLUTE
    Library\stm32f10x_dma.c                  0x00000000   Number         0  stm32f10x_dma.o ABSOLUTE
    Library\stm32f10x_exti.c                 0x00000000   Number         0  stm32f10x_exti.o ABSOLUTE
    Library\stm32f10x_flash.c                0x00000000   Number         0  stm32f10x_flash.o ABSOLUTE
    Library\stm32f10x_fsmc.c                 0x00000000   Number         0  stm32f10x_fsmc.o ABSOLUTE
    Library\stm32f10x_gpio.c                 0x00000000   Number         0  stm32f10x_gpio.o ABSOLUTE
    Library\stm32f10x_i2c.c                  0x00000000   Number         0  stm32f10x_i2c.o ABSOLUTE
    Library\stm32f10x_iwdg.c                 0x00000000   Number         0  stm32f10x_iwdg.o ABSOLUTE
    Library\stm32f10x_pwr.c                  0x00000000   Number         0  stm32f10x_pwr.o ABSOLUTE
    Library\stm32f10x_rcc.c                  0x00000000   Number         0  stm32f10x_rcc.o ABSOLUTE
    Library\stm32f10x_rtc.c                  0x00000000   Number         0  stm32f10x_rtc.o ABSOLUTE
    Library\stm32f10x_sdio.c                 0x00000000   Number         0  stm32f10x_sdio.o ABSOLUTE
    Library\stm32f10x_spi.c                  0x00000000   Number         0  stm32f10x_spi.o ABSOLUTE
    Library\stm32f10x_tim.c                  0x00000000   Number         0  stm32f10x_tim.o ABSOLUTE
    Library\stm32f10x_usart.c                0x00000000   Number         0  stm32f10x_usart.o ABSOLUTE
    Library\stm32f10x_wwdg.c                 0x00000000   Number         0  stm32f10x_wwdg.o ABSOLUTE
    MSG\MSG.c                                0x00000000   Number         0  msg.o ABSOLUTE
    MSG\Message.c                            0x00000000   Number         0  message.o ABSOLUTE
    Menu\GameMenu\GameMenu.c                 0x00000000   Number         0  gamemenu.o ABSOLUTE
    Menu\GameMenu\GameMenu_Minesweeper.c     0x00000000   Number         0  gamemenu_minesweeper.o ABSOLUTE
    Menu\GameMenu\GameMenu_Snake.c           0x00000000   Number         0  gamemenu_snake.o ABSOLUTE
    Menu\GameMenu\GameMenu_Tetris.c          0x00000000   Number         0  gamemenu_tetris.o ABSOLUTE
    Menu\Menu.c                              0x00000000   Number         0  menu.o ABSOLUTE
    Menu\SettingMenu\SettingMenu.c           0x00000000   Number         0  settingmenu.o ABSOLUTE
    Menu\TextMenu\TextMenu.c                 0x00000000   Number         0  textmenu.o ABSOLUTE
    Menu\TextMenu\TextMenu_Create.c          0x00000000   Number         0  textmenu_create.o ABSOLUTE
    Menu\TextMenu\TextMenu_Delete.c          0x00000000   Number         0  textmenu_delete.o ABSOLUTE
    Menu\TextMenu\TextMenu_Read.c            0x00000000   Number         0  textmenu_read.o ABSOLUTE
    Menu\TimeMenu\ClockMenu.c                0x00000000   Number         0  clockmenu.o ABSOLUTE
    Menu\TimeMenu\ClockMenu_Alarm.c          0x00000000   Number         0  clockmenu_alarm.o ABSOLUTE
    Menu\TimeMenu\ClockMenu_Setting.c        0x00000000   Number         0  clockmenu_setting.o ABSOLUTE
    Menu\TimeMenu\ClockMenu_Time.c           0x00000000   Number         0  clockmenu_time.o ABSOLUTE
    Start\\core_cm3.c                        0x00000000   Number         0  core_cm3.o ABSOLUTE
    Start\core_cm3.c                         0x00000000   Number         0  core_cm3.o ABSOLUTE
    Start\startup_stm32f10x_md.s             0x00000000   Number         0  startup_stm32f10x_md.o ABSOLUTE
    Start\system_stm32f10x.c                 0x00000000   Number         0  system_stm32f10x.o ABSOLUTE
    System\Delay.c                           0x00000000   Number         0  delay.o ABSOLUTE
    System\MyFLASH.c                         0x00000000   Number         0  myflash.o ABSOLUTE
    System\MyRTC.c                           0x00000000   Number         0  myrtc.o ABSOLUTE
    System\Store.c                           0x00000000   Number         0  store.o ABSOLUTE
    User\main.c                              0x00000000   Number         0  main.o ABSOLUTE
    User\stm32f10x_it.c                      0x00000000   Number         0  stm32f10x_it.o ABSOLUTE
    dc.s                                     0x00000000   Number         0  dc.o ABSOLUTE
    RESET                                    0x08000000   Section      236  startup_stm32f10x_md.o(RESET)
    !!!main                                  0x080000ec   Section        8  __main.o(!!!main)
    !!!scatter                               0x080000f4   Section       52  __scatter.o(!!!scatter)
    !!handler_copy                           0x08000128   Section       26  __scatter_copy.o(!!handler_copy)
    !!handler_zi                             0x08000144   Section       28  __scatter_zi.o(!!handler_zi)
    .ARM.Collect$$_printf_percent$$00000000  0x08000160   Section        0  _printf_percent.o(.ARM.Collect$$_printf_percent$$00000000)
    .ARM.Collect$$_printf_percent$$00000001  0x08000160   Section        6  _printf_n.o(.ARM.Collect$$_printf_percent$$00000001)
    .ARM.Collect$$_printf_percent$$00000002  0x08000166   Section        6  _printf_p.o(.ARM.Collect$$_printf_percent$$00000002)
    .ARM.Collect$$_printf_percent$$00000003  0x0800016c   Section        6  _printf_f.o(.ARM.Collect$$_printf_percent$$00000003)
    .ARM.Collect$$_printf_percent$$00000004  0x08000172   Section        6  _printf_e.o(.ARM.Collect$$_printf_percent$$00000004)
    .ARM.Collect$$_printf_percent$$00000005  0x08000178   Section        6  _printf_g.o(.ARM.Collect$$_printf_percent$$00000005)
    .ARM.Collect$$_printf_percent$$00000006  0x0800017e   Section        6  _printf_a.o(.ARM.Collect$$_printf_percent$$00000006)
    .ARM.Collect$$_printf_percent$$00000007  0x08000184   Section       10  _printf_ll.o(.ARM.Collect$$_printf_percent$$00000007)
    .ARM.Collect$$_printf_percent$$00000008  0x0800018e   Section        6  _printf_i.o(.ARM.Collect$$_printf_percent$$00000008)
    .ARM.Collect$$_printf_percent$$00000009  0x08000194   Section        6  _printf_d.o(.ARM.Collect$$_printf_percent$$00000009)
    .ARM.Collect$$_printf_percent$$0000000A  0x0800019a   Section        6  _printf_u.o(.ARM.Collect$$_printf_percent$$0000000A)
    .ARM.Collect$$_printf_percent$$0000000B  0x080001a0   Section        6  _printf_o.o(.ARM.Collect$$_printf_percent$$0000000B)
    .ARM.Collect$$_printf_percent$$0000000C  0x080001a6   Section        6  _printf_x.o(.ARM.Collect$$_printf_percent$$0000000C)
    .ARM.Collect$$_printf_percent$$0000000D  0x080001ac   Section        6  _printf_lli.o(.ARM.Collect$$_printf_percent$$0000000D)
    .ARM.Collect$$_printf_percent$$0000000E  0x080001b2   Section        6  _printf_lld.o(.ARM.Collect$$_printf_percent$$0000000E)
    .ARM.Collect$$_printf_percent$$0000000F  0x080001b8   Section        6  _printf_llu.o(.ARM.Collect$$_printf_percent$$0000000F)
    .ARM.Collect$$_printf_percent$$00000010  0x080001be   Section        6  _printf_llo.o(.ARM.Collect$$_printf_percent$$00000010)
    .ARM.Collect$$_printf_percent$$00000011  0x080001c4   Section        6  _printf_llx.o(.ARM.Collect$$_printf_percent$$00000011)
    .ARM.Collect$$_printf_percent$$00000012  0x080001ca   Section       10  _printf_l.o(.ARM.Collect$$_printf_percent$$00000012)
    .ARM.Collect$$_printf_percent$$00000013  0x080001d4   Section        6  _printf_c.o(.ARM.Collect$$_printf_percent$$00000013)
    .ARM.Collect$$_printf_percent$$00000014  0x080001da   Section        6  _printf_s.o(.ARM.Collect$$_printf_percent$$00000014)
    .ARM.Collect$$_printf_percent$$00000015  0x080001e0   Section        6  _printf_lc.o(.ARM.Collect$$_printf_percent$$00000015)
    .ARM.Collect$$_printf_percent$$00000016  0x080001e6   Section        6  _printf_ls.o(.ARM.Collect$$_printf_percent$$00000016)
    .ARM.Collect$$_printf_percent$$00000017  0x080001ec   Section        4  _printf_percent_end.o(.ARM.Collect$$_printf_percent$$00000017)
    .ARM.Collect$$libinit$$00000000          0x080001f0   Section        2  libinit.o(.ARM.Collect$$libinit$$00000000)
    .ARM.Collect$$libinit$$00000002          0x080001f2   Section        0  libinit2.o(.ARM.Collect$$libinit$$00000002)
    .ARM.Collect$$libinit$$00000004          0x080001f2   Section        0  libinit2.o(.ARM.Collect$$libinit$$00000004)
    .ARM.Collect$$libinit$$0000000A          0x080001f2   Section        0  libinit2.o(.ARM.Collect$$libinit$$0000000A)
    .ARM.Collect$$libinit$$0000000C          0x080001f2   Section        0  libinit2.o(.ARM.Collect$$libinit$$0000000C)
    .ARM.Collect$$libinit$$0000000D          0x080001f2   Section        4  libinit2.o(.ARM.Collect$$libinit$$0000000D)
    .ARM.Collect$$libinit$$0000000E          0x080001f6   Section        0  libinit2.o(.ARM.Collect$$libinit$$0000000E)
    .ARM.Collect$$libinit$$0000000F          0x080001f6   Section        6  libinit2.o(.ARM.Collect$$libinit$$0000000F)
    .ARM.Collect$$libinit$$00000011          0x080001fc   Section        0  libinit2.o(.ARM.Collect$$libinit$$00000011)
    .ARM.Collect$$libinit$$00000012          0x080001fc   Section       12  libinit2.o(.ARM.Collect$$libinit$$00000012)
    .ARM.Collect$$libinit$$00000013          0x08000208   Section        0  libinit2.o(.ARM.Collect$$libinit$$00000013)
    .ARM.Collect$$libinit$$00000015          0x08000208   Section        0  libinit2.o(.ARM.Collect$$libinit$$00000015)
    .ARM.Collect$$libinit$$00000016          0x08000208   Section       10  libinit2.o(.ARM.Collect$$libinit$$00000016)
    .ARM.Collect$$libinit$$00000017          0x08000212   Section        0  libinit2.o(.ARM.Collect$$libinit$$00000017)
    .ARM.Collect$$libinit$$00000019          0x08000212   Section        0  libinit2.o(.ARM.Collect$$libinit$$00000019)
    .ARM.Collect$$libinit$$0000001B          0x08000212   Section        0  libinit2.o(.ARM.Collect$$libinit$$0000001B)
    .ARM.Collect$$libinit$$0000001D          0x08000212   Section        0  libinit2.o(.ARM.Collect$$libinit$$0000001D)
    .ARM.Collect$$libinit$$0000001F          0x08000212   Section        0  libinit2.o(.ARM.Collect$$libinit$$0000001F)
    .ARM.Collect$$libinit$$00000021          0x08000212   Section        0  libinit2.o(.ARM.Collect$$libinit$$00000021)
    .ARM.Collect$$libinit$$00000023          0x08000212   Section        0  libinit2.o(.ARM.Collect$$libinit$$00000023)
    .ARM.Collect$$libinit$$00000025          0x08000212   Section        0  libinit2.o(.ARM.Collect$$libinit$$00000025)
    .ARM.Collect$$libinit$$0000002C          0x08000212   Section        0  libinit2.o(.ARM.Collect$$libinit$$0000002C)
    .ARM.Collect$$libinit$$0000002E          0x08000212   Section        0  libinit2.o(.ARM.Collect$$libinit$$0000002E)
    .ARM.Collect$$libinit$$00000030          0x08000212   Section        0  libinit2.o(.ARM.Collect$$libinit$$00000030)
    .ARM.Collect$$libinit$$00000032          0x08000212   Section        0  libinit2.o(.ARM.Collect$$libinit$$00000032)
    .ARM.Collect$$libinit$$00000033          0x08000212   Section        2  libinit2.o(.ARM.Collect$$libinit$$00000033)
    .ARM.Collect$$libshutdown$$00000000      0x08000214   Section        2  libshutdown.o(.ARM.Collect$$libshutdown$$00000000)
    .ARM.Collect$$libshutdown$$00000002      0x08000216   Section        0  libshutdown2.o(.ARM.Collect$$libshutdown$$00000002)
    .ARM.Collect$$libshutdown$$00000004      0x08000216   Section        0  libshutdown2.o(.ARM.Collect$$libshutdown$$00000004)
    .ARM.Collect$$libshutdown$$00000007      0x08000216   Section        0  libshutdown2.o(.ARM.Collect$$libshutdown$$00000007)
    .ARM.Collect$$libshutdown$$0000000A      0x08000216   Section        0  libshutdown2.o(.ARM.Collect$$libshutdown$$0000000A)
    .ARM.Collect$$libshutdown$$0000000C      0x08000216   Section        0  libshutdown2.o(.ARM.Collect$$libshutdown$$0000000C)
    .ARM.Collect$$libshutdown$$0000000F      0x08000216   Section        0  libshutdown2.o(.ARM.Collect$$libshutdown$$0000000F)
    .ARM.Collect$$libshutdown$$00000010      0x08000216   Section        2  libshutdown2.o(.ARM.Collect$$libshutdown$$00000010)
    .ARM.Collect$$rtentry$$00000000          0x08000218   Section        0  __rtentry.o(.ARM.Collect$$rtentry$$00000000)
    .ARM.Collect$$rtentry$$00000002          0x08000218   Section        0  __rtentry2.o(.ARM.Collect$$rtentry$$00000002)
    .ARM.Collect$$rtentry$$00000004          0x08000218   Section        6  __rtentry4.o(.ARM.Collect$$rtentry$$00000004)
    .ARM.Collect$$rtentry$$00000009          0x0800021e   Section        0  __rtentry2.o(.ARM.Collect$$rtentry$$00000009)
    .ARM.Collect$$rtentry$$0000000A          0x0800021e   Section        4  __rtentry2.o(.ARM.Collect$$rtentry$$0000000A)
    .ARM.Collect$$rtentry$$0000000C          0x08000222   Section        0  __rtentry2.o(.ARM.Collect$$rtentry$$0000000C)
    .ARM.Collect$$rtentry$$0000000D          0x08000222   Section        8  __rtentry2.o(.ARM.Collect$$rtentry$$0000000D)
    .ARM.Collect$$rtexit$$00000000           0x0800022a   Section        2  rtexit.o(.ARM.Collect$$rtexit$$00000000)
    .ARM.Collect$$rtexit$$00000002           0x0800022c   Section        0  rtexit2.o(.ARM.Collect$$rtexit$$00000002)
    .ARM.Collect$$rtexit$$00000003           0x0800022c   Section        4  rtexit2.o(.ARM.Collect$$rtexit$$00000003)
    .ARM.Collect$$rtexit$$00000004           0x08000230   Section        6  rtexit2.o(.ARM.Collect$$rtexit$$00000004)
    .emb_text                                0x08000238   Section       52  rand.o(.emb_text)
    .text                                    0x0800026c   Section       64  startup_stm32f10x_md.o(.text)
    .text                                    0x080002ac   Section        0  vsprintf.o(.text)
    .text                                    0x080002d0   Section        0  rand.o(.text)
    .text                                    0x0800030c   Section        0  strlen.o(.text)
    .text                                    0x0800034a   Section      100  rt_memcpy_w.o(.text)
    .text                                    0x080003ae   Section       78  rt_memclr_w.o(.text)
    .text                                    0x080003fc   Section      128  strcmpv7m.o(.text)
    .text                                    0x0800047c   Section        0  localtime.o(.text)
    .text                                    0x08000488   Section        0  mktime.o(.text)
    _tm_carry                                0x08000489   Thumb Code    62  mktime.o(.text)
    .text                                    0x08000634   Section        0  heapauxi.o(.text)
    .text                                    0x0800063a   Section        0  _printf_pad.o(.text)
    .text                                    0x08000688   Section        0  _printf_truncate.o(.text)
    .text                                    0x080006ac   Section        0  _printf_str.o(.text)
    .text                                    0x08000700   Section        0  _printf_dec.o(.text)
    .text                                    0x08000778   Section        0  _printf_charcount.o(.text)
    .text                                    0x080007a0   Section        0  _printf_char_common.o(.text)
    _printf_input_char                       0x080007a1   Thumb Code    10  _printf_char_common.o(.text)
    .text                                    0x080007d0   Section        0  _sputc.o(.text)
    .text                                    0x080007dc   Section        0  _printf_wctomb.o(.text)
    .text                                    0x08000898   Section        0  _printf_longlong_dec.o(.text)
    .text                                    0x08000914   Section        0  _printf_oct_int_ll.o(.text)
    _printf_longlong_oct_internal            0x08000915   Thumb Code     0  _printf_oct_int_ll.o(.text)
    .text                                    0x08000984   Section        0  _printf_hex_int_ll_ptr.o(.text)
    _printf_hex_common                       0x08000985   Thumb Code     0  _printf_hex_int_ll_ptr.o(.text)
    .text                                    0x08000a18   Section        0  __printf_flags_ss_wp.o(.text)
    .text                                    0x08000ba0   Section        0  localtime_internal.o(.text)
    .text                                    0x08000c58   Section      138  lludiv10.o(.text)
    .text                                    0x08000ce2   Section        0  _printf_intcommon.o(.text)
    .text                                    0x08000d94   Section        0  _printf_fp_dec.o(.text)
    _fp_digits                               0x08000d97   Thumb Code   432  _printf_fp_dec.o(.text)
    .text                                    0x080011b4   Section        0  _printf_fp_hex.o(.text)
    .text                                    0x080014b0   Section        0  _printf_char.o(.text)
    .text                                    0x080014dc   Section        0  _printf_wchar.o(.text)
    .text                                    0x08001508   Section        0  _wcrtomb.o(.text)
    .text                                    0x08001548   Section        8  libspace.o(.text)
    .text                                    0x08001550   Section       74  sys_stackheap_outer.o(.text)
    .text                                    0x0800159c   Section       16  rt_ctype_table.o(.text)
    .text                                    0x080015ac   Section        8  rt_locale_intlibspace.o(.text)
    .text                                    0x080015b4   Section        0  _printf_fp_infnan.o(.text)
    .text                                    0x08001634   Section        0  bigflt0.o(.text)
    .text                                    0x08001718   Section        0  exit.o(.text)
    .text                                    0x0800172a   Section        2  use_no_semi.o(.text)
    .text                                    0x0800172c   Section        0  indicate_semi.o(.text)
    .text                                    0x0800172c   Section        0  sys_exit.o(.text)
    CL$$btod_d2e                             0x08001738   Section       62  btod.o(CL$$btod_d2e)
    CL$$btod_d2e_denorm_low                  0x08001776   Section       70  btod.o(CL$$btod_d2e_denorm_low)
    CL$$btod_d2e_norm_op1                    0x080017bc   Section       96  btod.o(CL$$btod_d2e_norm_op1)
    CL$$btod_div_common                      0x0800181c   Section      824  btod.o(CL$$btod_div_common)
    CL$$btod_e2e                             0x08001b54   Section      220  btod.o(CL$$btod_e2e)
    CL$$btod_ediv                            0x08001c30   Section       42  btod.o(CL$$btod_ediv)
    CL$$btod_emul                            0x08001c5a   Section       42  btod.o(CL$$btod_emul)
    CL$$btod_mult_common                     0x08001c84   Section      580  btod.o(CL$$btod_mult_common)
    i.BKP_ReadBackupRegister                 0x08001ec8   Section        0  stm32f10x_bkp.o(i.BKP_ReadBackupRegister)
    i.BKP_WriteBackupRegister                0x08001ee4   Section        0  stm32f10x_bkp.o(i.BKP_WriteBackupRegister)
    i.BusFault_Handler                       0x08001f00   Section        0  stm32f10x_it.o(i.BusFault_Handler)
    i.ClockMenu_Alarm_Funsion                0x08001f04   Section        0  clockmenu_alarm.o(i.ClockMenu_Alarm_Funsion)
    ClockMenu_Alarm_Funsion                  0x08001f05   Thumb Code  1434  clockmenu_alarm.o(i.ClockMenu_Alarm_Funsion)
    i.ClockMenu_Alarm_Init                   0x080024a8   Section        0  clockmenu_alarm.o(i.ClockMenu_Alarm_Init)
    i.ClockMenu_Alarm_View_MAIN              0x08002510   Section        0  clockmenu_alarm.o(i.ClockMenu_Alarm_View_MAIN)
    ClockMenu_Alarm_View_MAIN                0x08002511   Thumb Code   106  clockmenu_alarm.o(i.ClockMenu_Alarm_View_MAIN)
    i.ClockMenu_Alarm_View_MAIN              0x08002598   Section        0  clockmenu_setting.o(i.ClockMenu_Alarm_View_MAIN)
    ClockMenu_Alarm_View_MAIN                0x08002599   Thumb Code    96  clockmenu_setting.o(i.ClockMenu_Alarm_View_MAIN)
    i.ClockMenu_Alarm_View_SETTING           0x0800260c   Section        0  clockmenu_alarm.o(i.ClockMenu_Alarm_View_SETTING)
    ClockMenu_Alarm_View_SETTING             0x0800260d   Thumb Code   168  clockmenu_alarm.o(i.ClockMenu_Alarm_View_SETTING)
    i.ClockMenu_Alarm_View_SETTING           0x08002708   Section        0  clockmenu_setting.o(i.ClockMenu_Alarm_View_SETTING)
    ClockMenu_Alarm_View_SETTING             0x08002709   Thumb Code   168  clockmenu_setting.o(i.ClockMenu_Alarm_View_SETTING)
    i.ClockMenu_Alarm_View_SWITCH            0x08002804   Section        0  clockmenu_alarm.o(i.ClockMenu_Alarm_View_SWITCH)
    ClockMenu_Alarm_View_SWITCH              0x08002805   Thumb Code   106  clockmenu_alarm.o(i.ClockMenu_Alarm_View_SWITCH)
    i.ClockMenu_Funsion                      0x0800288c   Section        0  clockmenu.o(i.ClockMenu_Funsion)
    i.ClockMenu_Init                         0x08002890   Section        0  clockmenu.o(i.ClockMenu_Init)
    i.ClockMenu_Setting_Funsion              0x080028ec   Section        0  clockmenu_setting.o(i.ClockMenu_Setting_Funsion)
    i.ClockMenu_Setting_Init                 0x08002de8   Section        0  clockmenu_setting.o(i.ClockMenu_Setting_Init)
    i.ClockMenu_Time_Funsion                 0x08002e54   Section        0  clockmenu_time.o(i.ClockMenu_Time_Funsion)
    ClockMenu_Time_Funsion                   0x08002e55   Thumb Code    70  clockmenu_time.o(i.ClockMenu_Time_Funsion)
    i.ClockMenu_Time_Init                    0x08002ea0   Section        0  clockmenu_time.o(i.ClockMenu_Time_Init)
    i.ClockMenu_Time_Loop                    0x08002ed4   Section        0  clockmenu_time.o(i.ClockMenu_Time_Loop)
    ClockMenu_Time_Loop                      0x08002ed5   Thumb Code   222  clockmenu_time.o(i.ClockMenu_Time_Loop)
    i.DebugMon_Handler                       0x08002fe4   Section        0  stm32f10x_it.o(i.DebugMon_Handler)
    i.Delay_ms                               0x08002fe6   Section        0  delay.o(i.Delay_ms)
    i.Delay_us                               0x08002ffe   Section        0  delay.o(i.Delay_us)
    i.Encoder_GetCounter                     0x0800302c   Section        0  encoder.o(i.Encoder_GetCounter)
    Encoder_GetCounter                       0x0800302d   Thumb Code    22  encoder.o(i.Encoder_GetCounter)
    i.Encoder_Init                           0x08003048   Section        0  encoder.o(i.Encoder_Init)
    i.Encoder_Loop                           0x08003100   Section        0  encoder.o(i.Encoder_Loop)
    i.FLASH_ErasePage                        0x080031d4   Section        0  stm32f10x_flash.o(i.FLASH_ErasePage)
    i.FLASH_GetBank1Status                   0x08003220   Section        0  stm32f10x_flash.o(i.FLASH_GetBank1Status)
    i.FLASH_Lock                             0x08003254   Section        0  stm32f10x_flash.o(i.FLASH_Lock)
    i.FLASH_ProgramHalfWord                  0x08003268   Section        0  stm32f10x_flash.o(i.FLASH_ProgramHalfWord)
    i.FLASH_Unlock                           0x080032a8   Section        0  stm32f10x_flash.o(i.FLASH_Unlock)
    i.FLASH_WaitForLastOperation             0x080032c0   Section        0  stm32f10x_flash.o(i.FLASH_WaitForLastOperation)
    i.GPIO_Init                              0x080032e6   Section        0  stm32f10x_gpio.o(i.GPIO_Init)
    i.GPIO_ReadInputDataBit                  0x080033fc   Section        0  stm32f10x_gpio.o(i.GPIO_ReadInputDataBit)
    i.GPIO_WriteBit                          0x0800340e   Section        0  stm32f10x_gpio.o(i.GPIO_WriteBit)
    i.GUI_Display                            0x08003418   Section        0  gui.o(i.GUI_Display)
    i.GUI_Init                               0x08003508   Section        0  gui.o(i.GUI_Init)
    i.GUI_ReceiveCommand                     0x08003530   Section        0  gui.o(i.GUI_ReceiveCommand)
    i.GUI_SetRelationship                    0x08003568   Section        0  gui.o(i.GUI_SetRelationship)
    GUI_SetRelationship                      0x08003569   Thumb Code    28  gui.o(i.GUI_SetRelationship)
    i.GUI_ToChild                            0x08003594   Section        0  gui.o(i.GUI_ToChild)
    GUI_ToChild                              0x08003595   Thumb Code     8  gui.o(i.GUI_ToChild)
    i.GUI_ToFather                           0x0800359c   Section        0  gui.o(i.GUI_ToFather)
    GUI_ToFather                             0x0800359d   Thumb Code     8  gui.o(i.GUI_ToFather)
    i.GUI_ToFunsion                          0x080035a4   Section        0  gui.o(i.GUI_ToFunsion)
    GUI_ToFunsion                            0x080035a5   Thumb Code     8  gui.o(i.GUI_ToFunsion)
    i.GUI_ToLast                             0x080035ac   Section        0  gui.o(i.GUI_ToLast)
    GUI_ToLast                               0x080035ad   Thumb Code   196  gui.o(i.GUI_ToLast)
    i.GUI_ToNext                             0x08003670   Section        0  gui.o(i.GUI_ToNext)
    GUI_ToNext                               0x08003671   Thumb Code   202  gui.o(i.GUI_ToNext)
    i.GameMenu_Funsion                       0x0800373a   Section        0  gamemenu.o(i.GameMenu_Funsion)
    i.GameMenu_Init                          0x0800373c   Section        0  gamemenu.o(i.GameMenu_Init)
    i.GameMenu_Minesweeper_Funsion           0x08003798   Section        0  gamemenu_minesweeper.o(i.GameMenu_Minesweeper_Funsion)
    i.GameMenu_Minesweeper_Init              0x080039e8   Section        0  gamemenu_minesweeper.o(i.GameMenu_Minesweeper_Init)
    i.GameMenu_Minesweeper_View_HELP         0x08003a2c   Section        0  gamemenu_minesweeper.o(i.GameMenu_Minesweeper_View_HELP)
    GameMenu_Minesweeper_View_HELP           0x08003a2d   Thumb Code    52  gamemenu_minesweeper.o(i.GameMenu_Minesweeper_View_HELP)
    i.GameMenu_Minesweeper_View_LEVEL        0x08003ad0   Section        0  gamemenu_minesweeper.o(i.GameMenu_Minesweeper_View_LEVEL)
    GameMenu_Minesweeper_View_LEVEL          0x08003ad1   Thumb Code   116  gamemenu_minesweeper.o(i.GameMenu_Minesweeper_View_LEVEL)
    i.GameMenu_Minesweeper_View_MAIN         0x08003b68   Section        0  gamemenu_minesweeper.o(i.GameMenu_Minesweeper_View_MAIN)
    GameMenu_Minesweeper_View_MAIN           0x08003b69   Thumb Code   116  gamemenu_minesweeper.o(i.GameMenu_Minesweeper_View_MAIN)
    i.GameMenu_Minesweeper_View_PAUSE        0x08003c00   Section        0  gamemenu_minesweeper.o(i.GameMenu_Minesweeper_View_PAUSE)
    GameMenu_Minesweeper_View_PAUSE          0x08003c01   Thumb Code    64  gamemenu_minesweeper.o(i.GameMenu_Minesweeper_View_PAUSE)
    i.GameMenu_Minesweeper_View_RECORD       0x08003c54   Section        0  gamemenu_minesweeper.o(i.GameMenu_Minesweeper_View_RECORD)
    GameMenu_Minesweeper_View_RECORD         0x08003c55   Thumb Code   120  gamemenu_minesweeper.o(i.GameMenu_Minesweeper_View_RECORD)
    i.GameMenu_Snake_Funsion                 0x08003d14   Section        0  gamemenu_snake.o(i.GameMenu_Snake_Funsion)
    GameMenu_Snake_Funsion                   0x08003d15   Thumb Code   456  gamemenu_snake.o(i.GameMenu_Snake_Funsion)
    i.GameMenu_Snake_Init                    0x08003ee4   Section        0  gamemenu_snake.o(i.GameMenu_Snake_Init)
    i.GameMenu_Snake_View_HELP               0x08003f28   Section        0  gamemenu_snake.o(i.GameMenu_Snake_View_HELP)
    GameMenu_Snake_View_HELP                 0x08003f29   Thumb Code    52  gamemenu_snake.o(i.GameMenu_Snake_View_HELP)
    i.GameMenu_Snake_View_MAIN               0x08003fc0   Section        0  gamemenu_snake.o(i.GameMenu_Snake_View_MAIN)
    GameMenu_Snake_View_MAIN                 0x08003fc1   Thumb Code   116  gamemenu_snake.o(i.GameMenu_Snake_View_MAIN)
    i.GameMenu_Snake_View_PAUSE              0x08004058   Section        0  gamemenu_snake.o(i.GameMenu_Snake_View_PAUSE)
    GameMenu_Snake_View_PAUSE                0x08004059   Thumb Code    64  gamemenu_snake.o(i.GameMenu_Snake_View_PAUSE)
    i.GameMenu_Snake_View_RECORD             0x080040ac   Section        0  gamemenu_snake.o(i.GameMenu_Snake_View_RECORD)
    GameMenu_Snake_View_RECORD               0x080040ad   Thumb Code    58  gamemenu_snake.o(i.GameMenu_Snake_View_RECORD)
    i.GameMenu_Tetris_Funsion                0x080040f8   Section        0  gamemenu_tetris.o(i.GameMenu_Tetris_Funsion)
    GameMenu_Tetris_Funsion                  0x080040f9   Thumb Code   482  gamemenu_tetris.o(i.GameMenu_Tetris_Funsion)
    i.GameMenu_Tetris_Init                   0x080042e4   Section        0  gamemenu_tetris.o(i.GameMenu_Tetris_Init)
    i.GameMenu_Tetris_View_HELP              0x0800431c   Section        0  gamemenu_tetris.o(i.GameMenu_Tetris_View_HELP)
    GameMenu_Tetris_View_HELP                0x0800431d   Thumb Code    52  gamemenu_tetris.o(i.GameMenu_Tetris_View_HELP)
    i.GameMenu_Tetris_View_MAIN              0x080043c0   Section        0  gamemenu_tetris.o(i.GameMenu_Tetris_View_MAIN)
    GameMenu_Tetris_View_MAIN                0x080043c1   Thumb Code   116  gamemenu_tetris.o(i.GameMenu_Tetris_View_MAIN)
    i.GameMenu_Tetris_View_PAUSE             0x08004458   Section        0  gamemenu_tetris.o(i.GameMenu_Tetris_View_PAUSE)
    GameMenu_Tetris_View_PAUSE               0x08004459   Thumb Code    64  gamemenu_tetris.o(i.GameMenu_Tetris_View_PAUSE)
    i.GameMenu_Tetris_View_RECORD            0x080044ac   Section        0  gamemenu_tetris.o(i.GameMenu_Tetris_View_RECORD)
    GameMenu_Tetris_View_RECORD              0x080044ad   Thumb Code    58  gamemenu_tetris.o(i.GameMenu_Tetris_View_RECORD)
    i.HardFault_Handler                      0x080044f8   Section        0  stm32f10x_it.o(i.HardFault_Handler)
    i.IWDG_Enable                            0x080044fc   Section        0  stm32f10x_iwdg.o(i.IWDG_Enable)
    i.IWDG_Init                              0x0800450c   Section        0  main.o(i.IWDG_Init)
    i.IWDG_ReloadCounter                     0x08004544   Section        0  stm32f10x_iwdg.o(i.IWDG_ReloadCounter)
    i.IWDG_SetPrescaler                      0x08004554   Section        0  stm32f10x_iwdg.o(i.IWDG_SetPrescaler)
    i.IWDG_SetReload                         0x08004560   Section        0  stm32f10x_iwdg.o(i.IWDG_SetReload)
    i.IWDG_WriteAccessCmd                    0x0800456c   Section        0  stm32f10x_iwdg.o(i.IWDG_WriteAccessCmd)
    i.Key_GetState                           0x08004578   Section        0  key.o(i.Key_GetState)
    Key_GetState                             0x08004579   Thumb Code    60  key.o(i.Key_GetState)
    i.Key_Init                               0x080045b8   Section        0  key.o(i.Key_Init)
    i.Key_Loop                               0x08004614   Section        0  key.o(i.Key_Loop)
    i.MSG_DefaultProc                        0x08004758   Section        0  msg.o(i.MSG_DefaultProc)
    i.MSG_GetMessage                         0x08004770   Section        0  message.o(i.MSG_GetMessage)
    i.MSG_Init                               0x080047b4   Section        0  message.o(i.MSG_Init)
    i.MSG_MQOverflow                         0x080047cc   Section        0  message.o(i.MSG_MQOverflow)
    MSG_MQOverflow                           0x080047cd   Thumb Code     6  message.o(i.MSG_MQOverflow)
    i.MSG_SendInitMessage                    0x080047d4   Section        0  message.o(i.MSG_SendInitMessage)
    MSG_SendInitMessage                      0x080047d5   Thumb Code    58  message.o(i.MSG_SendInitMessage)
    i.MSG_SendMessage                        0x08004818   Section        0  message.o(i.MSG_SendMessage)
    i.MSG_isEmpty                            0x0800492c   Section        0  message.o(i.MSG_isEmpty)
    MSG_isEmpty                              0x0800492d   Thumb Code    20  message.o(i.MSG_isEmpty)
    i.MemManage_Handler                      0x08004944   Section        0  stm32f10x_it.o(i.MemManage_Handler)
    i.Menu_GetFather                         0x08004948   Section        0  menu.o(i.Menu_GetFather)
    i.Menu_GetIcon                           0x08004954   Section        0  menu.o(i.Menu_GetIcon)
    i.Menu_GetLast                           0x08004960   Section        0  menu.o(i.Menu_GetLast)
    i.Menu_GetName                           0x0800496c   Section        0  menu.o(i.Menu_GetName)
    i.Menu_GetNext                           0x08004978   Section        0  menu.o(i.Menu_GetNext)
    i.Menu_Init                              0x08004984   Section        0  menu.o(i.Menu_Init)
    i.Menu_SetChild                          0x08004996   Section        0  menu.o(i.Menu_SetChild)
    i.Menu_SetCurrent                        0x080049d0   Section        0  menu.o(i.Menu_SetCurrent)
    i.Menu_SetFather                         0x080049dc   Section        0  menu.o(i.Menu_SetFather)
    i.Menu_SetNext                           0x08004a04   Section        0  menu.o(i.Menu_SetNext)
    i.Menu_ToChild                           0x08004a0c   Section        0  menu.o(i.Menu_ToChild)
    i.Menu_ToFather                          0x08004a2c   Section        0  menu.o(i.Menu_ToFather)
    i.Menu_ToFunsion                         0x08004a5c   Section        0  menu.o(i.Menu_ToFunsion)
    i.Menu_ToLast                            0x08004a7c   Section        0  menu.o(i.Menu_ToLast)
    i.Menu_ToNext                            0x08004a9c   Section        0  menu.o(i.Menu_ToNext)
    i.Minesweeper_ClearArea                  0x08004abc   Section        0  gamemenu_minesweeper.o(i.Minesweeper_ClearArea)
    Minesweeper_ClearArea                    0x08004abd   Thumb Code   116  gamemenu_minesweeper.o(i.Minesweeper_ClearArea)
    i.Minesweeper_CreateMine                 0x08004b34   Section        0  gamemenu_minesweeper.o(i.Minesweeper_CreateMine)
    Minesweeper_CreateMine                   0x08004b35   Thumb Code    72  gamemenu_minesweeper.o(i.Minesweeper_CreateMine)
    i.Minesweeper_Display                    0x08004b80   Section        0  gamemenu_minesweeper.o(i.Minesweeper_Display)
    Minesweeper_Display                      0x08004b81   Thumb Code   236  gamemenu_minesweeper.o(i.Minesweeper_Display)
    i.Minesweeper_Down                       0x08004c78   Section        0  gamemenu_minesweeper.o(i.Minesweeper_Down)
    Minesweeper_Down                         0x08004c79   Thumb Code    40  gamemenu_minesweeper.o(i.Minesweeper_Down)
    i.Minesweeper_Init                       0x08004ca4   Section        0  gamemenu_minesweeper.o(i.Minesweeper_Init)
    Minesweeper_Init                         0x08004ca5   Thumb Code   144  gamemenu_minesweeper.o(i.Minesweeper_Init)
    i.Minesweeper_Left                       0x08004d38   Section        0  gamemenu_minesweeper.o(i.Minesweeper_Left)
    Minesweeper_Left                         0x08004d39   Thumb Code    40  gamemenu_minesweeper.o(i.Minesweeper_Left)
    i.Minesweeper_Loop                       0x08004d64   Section        0  gamemenu_minesweeper.o(i.Minesweeper_Loop)
    i.Minesweeper_NearbyMineNum              0x08004da8   Section        0  gamemenu_minesweeper.o(i.Minesweeper_NearbyMineNum)
    Minesweeper_NearbyMineNum                0x08004da9   Thumb Code    88  gamemenu_minesweeper.o(i.Minesweeper_NearbyMineNum)
    i.Minesweeper_Right                      0x08004e04   Section        0  gamemenu_minesweeper.o(i.Minesweeper_Right)
    Minesweeper_Right                        0x08004e05   Thumb Code    40  gamemenu_minesweeper.o(i.Minesweeper_Right)
    i.Minesweeper_Save                       0x08004e30   Section        0  gamemenu_minesweeper.o(i.Minesweeper_Save)
    Minesweeper_Save                         0x08004e31   Thumb Code   110  gamemenu_minesweeper.o(i.Minesweeper_Save)
    i.Minesweeper_ShowAllMine                0x08004ea8   Section        0  gamemenu_minesweeper.o(i.Minesweeper_ShowAllMine)
    Minesweeper_ShowAllMine                  0x08004ea9   Thumb Code    54  gamemenu_minesweeper.o(i.Minesweeper_ShowAllMine)
    i.Minesweeper_Sweep                      0x08004ee4   Section        0  gamemenu_minesweeper.o(i.Minesweeper_Sweep)
    Minesweeper_Sweep                        0x08004ee5   Thumb Code   122  gamemenu_minesweeper.o(i.Minesweeper_Sweep)
    i.Minesweeper_Up                         0x08004f6c   Section        0  gamemenu_minesweeper.o(i.Minesweeper_Up)
    Minesweeper_Up                           0x08004f6d   Thumb Code    40  gamemenu_minesweeper.o(i.Minesweeper_Up)
    i.Minesweeper_isWin                      0x08004f98   Section        0  gamemenu_minesweeper.o(i.Minesweeper_isWin)
    Minesweeper_isWin                        0x08004f99   Thumb Code    60  gamemenu_minesweeper.o(i.Minesweeper_isWin)
    i.MyFLASH_ErasePage                      0x08004fd8   Section        0  myflash.o(i.MyFLASH_ErasePage)
    i.MyFLASH_ProgramHalfWord                0x08004fec   Section        0  myflash.o(i.MyFLASH_ProgramHalfWord)
    i.MyFLASH_ReadHalfWord                   0x08005004   Section        0  myflash.o(i.MyFLASH_ReadHalfWord)
    i.MyRTC_Init                             0x0800500a   Section        0  myrtc.o(i.MyRTC_Init)
    i.MyRTC_ReadTime                         0x0800507c   Section        0  myrtc.o(i.MyRTC_ReadTime)
    i.MyRTC_SetAlarm                         0x080050c0   Section        0  myrtc.o(i.MyRTC_SetAlarm)
    i.MyRTC_SetTime                          0x080050fc   Section        0  myrtc.o(i.MyRTC_SetTime)
    i.MyRTC_TurnOffAlarm                     0x08005144   Section        0  myrtc.o(i.MyRTC_TurnOffAlarm)
    i.MyRTC_TurnOnAlarm                      0x08005178   Section        0  myrtc.o(i.MyRTC_TurnOnAlarm)
    i.NMI_Handler                            0x080051ac   Section        0  stm32f10x_it.o(i.NMI_Handler)
    i.NVIC_Init                              0x080051b0   Section        0  misc.o(i.NVIC_Init)
    i.NVIC_PriorityGroupConfig               0x08005220   Section        0  misc.o(i.NVIC_PriorityGroupConfig)
    i.OLED_Clear                             0x08005234   Section        0  oled.o(i.OLED_Clear)
    i.OLED_ClearArea                         0x0800525c   Section        0  oled.o(i.OLED_ClearArea)
    i.OLED_CopyDisplayBuf                    0x0800531c   Section        0  oled.o(i.OLED_CopyDisplayBuf)
    i.OLED_DrawLine                          0x08005350   Section        0  oled.o(i.OLED_DrawLine)
    i.OLED_DrawPoint                         0x080054c8   Section        0  oled.o(i.OLED_DrawPoint)
    i.OLED_DrawRectangle                     0x08005518   Section        0  oled.o(i.OLED_DrawRectangle)
    i.OLED_GPIO_Init                         0x080055a8   Section        0  oled.o(i.OLED_GPIO_Init)
    i.OLED_I2C_SendByte                      0x08005608   Section        0  oled.o(i.OLED_I2C_SendByte)
    i.OLED_I2C_Start                         0x08005646   Section        0  oled.o(i.OLED_I2C_Start)
    i.OLED_I2C_Stop                          0x08005662   Section        0  oled.o(i.OLED_I2C_Stop)
    i.OLED_Init                              0x08005678   Section        0  oled.o(i.OLED_Init)
    i.OLED_Printf                            0x08005712   Section        0  oled.o(i.OLED_Printf)
    i.OLED_ReverseArea                       0x08005744   Section        0  oled.o(i.OLED_ReverseArea)
    i.OLED_SetCursor                         0x08005804   Section        0  oled.o(i.OLED_SetCursor)
    i.OLED_ShowChar                          0x08005828   Section        0  oled.o(i.OLED_ShowChar)
    i.OLED_ShowChinese                       0x0800587c   Section        0  oled.o(i.OLED_ShowChinese)
    i.OLED_ShowImage                         0x08005914   Section        0  oled.o(i.OLED_ShowImage)
    i.OLED_ShowString                        0x08005a5c   Section        0  oled.o(i.OLED_ShowString)
    i.OLED_Update                            0x08005a8c   Section        0  oled.o(i.OLED_Update)
    i.OLED_UpdateArea                        0x08005ab4   Section        0  oled.o(i.OLED_UpdateArea)
    i.OLED_W_SCL                             0x08005b30   Section        0  oled.o(i.OLED_W_SCL)
    i.OLED_W_SDA                             0x08005b48   Section        0  oled.o(i.OLED_W_SDA)
    i.OLED_WriteCommand                      0x08005b60   Section        0  oled.o(i.OLED_WriteCommand)
    i.OLED_WriteData                         0x08005b80   Section        0  oled.o(i.OLED_WriteData)
    i.PWR_BackupAccessCmd                    0x08005bb0   Section        0  stm32f10x_pwr.o(i.PWR_BackupAccessCmd)
    i.PendSV_Handler                         0x08005bbc   Section        0  stm32f10x_it.o(i.PendSV_Handler)
    i.RCC_APB1PeriphClockCmd                 0x08005bc0   Section        0  stm32f10x_rcc.o(i.RCC_APB1PeriphClockCmd)
    i.RCC_APB2PeriphClockCmd                 0x08005be0   Section        0  stm32f10x_rcc.o(i.RCC_APB2PeriphClockCmd)
    i.RCC_ClearFlag                          0x08005c00   Section        0  stm32f10x_rcc.o(i.RCC_ClearFlag)
    i.RCC_GetFlagStatus                      0x08005c14   Section        0  stm32f10x_rcc.o(i.RCC_GetFlagStatus)
    i.RCC_LSEConfig                          0x08005c50   Section        0  stm32f10x_rcc.o(i.RCC_LSEConfig)
    i.RCC_RTCCLKCmd                          0x08005c84   Section        0  stm32f10x_rcc.o(i.RCC_RTCCLKCmd)
    i.RCC_RTCCLKConfig                       0x08005c90   Section        0  stm32f10x_rcc.o(i.RCC_RTCCLKConfig)
    i.RTC_ClearITPendingBit                  0x08005ca0   Section        0  stm32f10x_rtc.o(i.RTC_ClearITPendingBit)
    i.RTC_EnterConfigMode                    0x08005cb0   Section        0  stm32f10x_rtc.o(i.RTC_EnterConfigMode)
    i.RTC_ExitConfigMode                     0x08005cc4   Section        0  stm32f10x_rtc.o(i.RTC_ExitConfigMode)
    i.RTC_GetCounter                         0x08005cd8   Section        0  stm32f10x_rtc.o(i.RTC_GetCounter)
    i.RTC_GetITStatus                        0x08005cec   Section        0  stm32f10x_rtc.o(i.RTC_GetITStatus)
    i.RTC_IRQHandler                         0x08005d10   Section        0  clockmenu_alarm.o(i.RTC_IRQHandler)
    i.RTC_ITConfig                           0x08005e40   Section        0  stm32f10x_rtc.o(i.RTC_ITConfig)
    i.RTC_SetAlarm                           0x08005e60   Section        0  stm32f10x_rtc.o(i.RTC_SetAlarm)
    i.RTC_SetCounter                         0x08005e7c   Section        0  stm32f10x_rtc.o(i.RTC_SetCounter)
    i.RTC_SetPrescaler                       0x08005e98   Section        0  stm32f10x_rtc.o(i.RTC_SetPrescaler)
    i.RTC_WaitForLastTask                    0x08005eb8   Section        0  stm32f10x_rtc.o(i.RTC_WaitForLastTask)
    i.RTC_WaitForSynchro                     0x08005ecc   Section        0  stm32f10x_rtc.o(i.RTC_WaitForSynchro)
    i.SVC_Handler                            0x08005ef0   Section        0  stm32f10x_it.o(i.SVC_Handler)
    i.SetSysClock                            0x08005ef2   Section        0  system_stm32f10x.o(i.SetSysClock)
    SetSysClock                              0x08005ef3   Thumb Code     8  system_stm32f10x.o(i.SetSysClock)
    i.SetSysClockTo72                        0x08005efc   Section        0  system_stm32f10x.o(i.SetSysClockTo72)
    SetSysClockTo72                          0x08005efd   Thumb Code   214  system_stm32f10x.o(i.SetSysClockTo72)
    i.SettingMenu_Funsion                    0x08005fdc   Section        0  settingmenu.o(i.SettingMenu_Funsion)
    i.SettingMenu_Init                       0x08005fe0   Section        0  settingmenu.o(i.SettingMenu_Init)
    i.Snake_CreateFood                       0x0800600c   Section        0  gamemenu_snake.o(i.Snake_CreateFood)
    Snake_CreateFood                         0x0800600d   Thumb Code   130  gamemenu_snake.o(i.Snake_CreateFood)
    i.Snake_Display                          0x08006094   Section        0  gamemenu_snake.o(i.Snake_Display)
    Snake_Display                            0x08006095   Thumb Code   300  gamemenu_snake.o(i.Snake_Display)
    i.Snake_Init                             0x080061d8   Section        0  gamemenu_snake.o(i.Snake_Init)
    Snake_Init                               0x080061d9   Thumb Code   184  gamemenu_snake.o(i.Snake_Init)
    i.Snake_Left                             0x08006298   Section        0  gamemenu_snake.o(i.Snake_Left)
    Snake_Left                               0x08006299   Thumb Code   156  gamemenu_snake.o(i.Snake_Left)
    i.Snake_Loop                             0x08006338   Section        0  gamemenu_snake.o(i.Snake_Loop)
    i.Snake_Right                            0x08006644   Section        0  gamemenu_snake.o(i.Snake_Right)
    Snake_Right                              0x08006645   Thumb Code   156  gamemenu_snake.o(i.Snake_Right)
    i.Snake_Save                             0x080066e4   Section        0  gamemenu_snake.o(i.Snake_Save)
    Snake_Save                               0x080066e5   Thumb Code    88  gamemenu_snake.o(i.Snake_Save)
    i.Store_Init                             0x08006744   Section        0  store.o(i.Store_Init)
    i.Store_Save                             0x080067a8   Section        0  store.o(i.Store_Save)
    i.SysTick_Handler                        0x080067dc   Section        0  stm32f10x_it.o(i.SysTick_Handler)
    i.SystemInit                             0x080067e0   Section        0  system_stm32f10x.o(i.SystemInit)
    i.TI1_Config                             0x08006840   Section        0  stm32f10x_tim.o(i.TI1_Config)
    TI1_Config                               0x08006841   Thumb Code   108  stm32f10x_tim.o(i.TI1_Config)
    i.TI2_Config                             0x080068c0   Section        0  stm32f10x_tim.o(i.TI2_Config)
    TI2_Config                               0x080068c1   Thumb Code   130  stm32f10x_tim.o(i.TI2_Config)
    i.TI3_Config                             0x08006958   Section        0  stm32f10x_tim.o(i.TI3_Config)
    TI3_Config                               0x08006959   Thumb Code   122  stm32f10x_tim.o(i.TI3_Config)
    i.TI4_Config                             0x080069e8   Section        0  stm32f10x_tim.o(i.TI4_Config)
    TI4_Config                               0x080069e9   Thumb Code   130  stm32f10x_tim.o(i.TI4_Config)
    i.TIM2_IRQHandler                        0x08006a80   Section        0  timer.o(i.TIM2_IRQHandler)
    i.TIM_ClearFlag                          0x08006b28   Section        0  stm32f10x_tim.o(i.TIM_ClearFlag)
    i.TIM_ClearITPendingBit                  0x08006b2e   Section        0  stm32f10x_tim.o(i.TIM_ClearITPendingBit)
    i.TIM_Cmd                                0x08006b34   Section        0  stm32f10x_tim.o(i.TIM_Cmd)
    i.TIM_EncoderInterfaceConfig             0x08006b4c   Section        0  stm32f10x_tim.o(i.TIM_EncoderInterfaceConfig)
    i.TIM_GetCounter                         0x08006b8e   Section        0  stm32f10x_tim.o(i.TIM_GetCounter)
    i.TIM_GetITStatus                        0x08006b94   Section        0  stm32f10x_tim.o(i.TIM_GetITStatus)
    i.TIM_ICInit                             0x08006bb8   Section        0  stm32f10x_tim.o(i.TIM_ICInit)
    i.TIM_ICStructInit                       0x08006c64   Section        0  stm32f10x_tim.o(i.TIM_ICStructInit)
    i.TIM_ITConfig                           0x08006c76   Section        0  stm32f10x_tim.o(i.TIM_ITConfig)
    i.TIM_InternalClockConfig                0x08006c88   Section        0  stm32f10x_tim.o(i.TIM_InternalClockConfig)
    i.TIM_SetCounter                         0x08006c94   Section        0  stm32f10x_tim.o(i.TIM_SetCounter)
    i.TIM_SetIC1Prescaler                    0x08006c98   Section        0  stm32f10x_tim.o(i.TIM_SetIC1Prescaler)
    i.TIM_SetIC2Prescaler                    0x08006caa   Section        0  stm32f10x_tim.o(i.TIM_SetIC2Prescaler)
    i.TIM_SetIC3Prescaler                    0x08006cc4   Section        0  stm32f10x_tim.o(i.TIM_SetIC3Prescaler)
    i.TIM_SetIC4Prescaler                    0x08006cd6   Section        0  stm32f10x_tim.o(i.TIM_SetIC4Prescaler)
    i.TIM_TimeBaseInit                       0x08006cf0   Section        0  stm32f10x_tim.o(i.TIM_TimeBaseInit)
    i.Tetris_Create                          0x08006d94   Section        0  gamemenu_tetris.o(i.Tetris_Create)
    Tetris_Create                            0x08006d95   Thumb Code    84  gamemenu_tetris.o(i.Tetris_Create)
    i.Tetris_Display                         0x08006df4   Section        0  gamemenu_tetris.o(i.Tetris_Display)
    Tetris_Display                           0x08006df5   Thumb Code   966  gamemenu_tetris.o(i.Tetris_Display)
    i.Tetris_DistanceToBottom                0x080071d8   Section        0  gamemenu_tetris.o(i.Tetris_DistanceToBottom)
    Tetris_DistanceToBottom                  0x080071d9   Thumb Code    68  gamemenu_tetris.o(i.Tetris_DistanceToBottom)
    i.Tetris_Fall                            0x08007228   Section        0  gamemenu_tetris.o(i.Tetris_Fall)
    Tetris_Fall                              0x08007229   Thumb Code    70  gamemenu_tetris.o(i.Tetris_Fall)
    i.Tetris_Full                            0x0800727c   Section        0  gamemenu_tetris.o(i.Tetris_Full)
    Tetris_Full                              0x0800727d   Thumb Code   128  gamemenu_tetris.o(i.Tetris_Full)
    i.Tetris_GameOver                        0x08007308   Section        0  gamemenu_tetris.o(i.Tetris_GameOver)
    Tetris_GameOver                          0x08007309   Thumb Code    36  gamemenu_tetris.o(i.Tetris_GameOver)
    i.Tetris_Hitbottom                       0x08007330   Section        0  gamemenu_tetris.o(i.Tetris_Hitbottom)
    Tetris_Hitbottom                         0x08007331   Thumb Code    20  gamemenu_tetris.o(i.Tetris_Hitbottom)
    i.Tetris_Init                            0x08007348   Section        0  gamemenu_tetris.o(i.Tetris_Init)
    Tetris_Init                              0x08007349   Thumb Code    58  gamemenu_tetris.o(i.Tetris_Init)
    i.Tetris_Left                            0x0800738c   Section        0  gamemenu_tetris.o(i.Tetris_Left)
    Tetris_Left                              0x0800738d   Thumb Code    68  gamemenu_tetris.o(i.Tetris_Left)
    i.Tetris_Loop                            0x080073dc   Section        0  gamemenu_tetris.o(i.Tetris_Loop)
    Tetris_Loop                              0x080073dd   Thumb Code   150  gamemenu_tetris.o(i.Tetris_Loop)
    i.Tetris_Pow                             0x0800748c   Section        0  gamemenu_tetris.o(i.Tetris_Pow)
    Tetris_Pow                               0x0800748d   Thumb Code    56  gamemenu_tetris.o(i.Tetris_Pow)
    i.Tetris_Right                           0x080074c4   Section        0  gamemenu_tetris.o(i.Tetris_Right)
    Tetris_Right                             0x080074c5   Thumb Code    68  gamemenu_tetris.o(i.Tetris_Right)
    i.Tetris_RtLeft                          0x08007514   Section        0  gamemenu_tetris.o(i.Tetris_RtLeft)
    Tetris_RtLeft                            0x08007515   Thumb Code   132  gamemenu_tetris.o(i.Tetris_RtLeft)
    i.Tetris_RtRight                         0x080075a8   Section        0  gamemenu_tetris.o(i.Tetris_RtRight)
    Tetris_RtRight                           0x080075a9   Thumb Code   132  gamemenu_tetris.o(i.Tetris_RtRight)
    i.Tetris_Save                            0x0800763c   Section        0  gamemenu_tetris.o(i.Tetris_Save)
    Tetris_Save                              0x0800763d   Thumb Code    84  gamemenu_tetris.o(i.Tetris_Save)
    i.Tetris_Stack                           0x08007698   Section        0  gamemenu_tetris.o(i.Tetris_Stack)
    Tetris_Stack                             0x08007699   Thumb Code    66  gamemenu_tetris.o(i.Tetris_Stack)
    i.TextMenu_Create_Funsion                0x080076e8   Section        0  textmenu_create.o(i.TextMenu_Create_Funsion)
    TextMenu_Create_Funsion                  0x080076e9   Thumb Code   436  textmenu_create.o(i.TextMenu_Create_Funsion)
    i.TextMenu_Create_Init                   0x080078a0   Section        0  textmenu_create.o(i.TextMenu_Create_Init)
    i.TextMenu_Create_View_Status0           0x080078d8   Section        0  textmenu_create.o(i.TextMenu_Create_View_Status0)
    TextMenu_Create_View_Status0             0x080078d9   Thumb Code   236  textmenu_create.o(i.TextMenu_Create_View_Status0)
    i.TextMenu_Create_View_Status1           0x08007a00   Section        0  textmenu_create.o(i.TextMenu_Create_View_Status1)
    TextMenu_Create_View_Status1             0x08007a01   Thumb Code   226  textmenu_create.o(i.TextMenu_Create_View_Status1)
    i.TextMenu_Create_View_Status2           0x08007b04   Section        0  textmenu_create.o(i.TextMenu_Create_View_Status2)
    TextMenu_Create_View_Status2             0x08007b05   Thumb Code    90  textmenu_create.o(i.TextMenu_Create_View_Status2)
    i.TextMenu_Create_View_Warning           0x08007b7c   Section        0  textmenu_create.o(i.TextMenu_Create_View_Warning)
    TextMenu_Create_View_Warning             0x08007b7d   Thumb Code    38  textmenu_create.o(i.TextMenu_Create_View_Warning)
    i.TextMenu_Delete_DeleteText             0x08007bc0   Section        0  textmenu_delete.o(i.TextMenu_Delete_DeleteText)
    TextMenu_Delete_DeleteText               0x08007bc1   Thumb Code   212  textmenu_delete.o(i.TextMenu_Delete_DeleteText)
    i.TextMenu_Delete_Funsion                0x08007ca4   Section        0  textmenu_delete.o(i.TextMenu_Delete_Funsion)
    TextMenu_Delete_Funsion                  0x08007ca5   Thumb Code   142  textmenu_delete.o(i.TextMenu_Delete_Funsion)
    i.TextMenu_Delete_Init                   0x08007d38   Section        0  textmenu_delete.o(i.TextMenu_Delete_Init)
    i.TextMenu_Delete_View_Status0           0x08007d70   Section        0  textmenu_delete.o(i.TextMenu_Delete_View_Status0)
    TextMenu_Delete_View_Status0             0x08007d71   Thumb Code   132  textmenu_delete.o(i.TextMenu_Delete_View_Status0)
    i.TextMenu_Delete_View_Warning           0x08007e1c   Section        0  textmenu_delete.o(i.TextMenu_Delete_View_Warning)
    TextMenu_Delete_View_Warning             0x08007e1d   Thumb Code    38  textmenu_delete.o(i.TextMenu_Delete_View_Warning)
    i.TextMenu_Funsion                       0x08007e64   Section        0  textmenu.o(i.TextMenu_Funsion)
    TextMenu_Funsion                         0x08007e65   Thumb Code     2  textmenu.o(i.TextMenu_Funsion)
    i.TextMenu_Init                          0x08007e68   Section        0  textmenu.o(i.TextMenu_Init)
    i.TextMenu_Read_DisplayText              0x08007ec4   Section        0  textmenu_read.o(i.TextMenu_Read_DisplayText)
    TextMenu_Read_DisplayText                0x08007ec5   Thumb Code   250  textmenu_read.o(i.TextMenu_Read_DisplayText)
    i.TextMenu_Read_Funsion                  0x08007fc4   Section        0  textmenu_read.o(i.TextMenu_Read_Funsion)
    TextMenu_Read_Funsion                    0x08007fc5   Thumb Code   188  textmenu_read.o(i.TextMenu_Read_Funsion)
    i.TextMenu_Read_Init                     0x08008084   Section        0  textmenu_read.o(i.TextMenu_Read_Init)
    i.TextMenu_Read_View_Status0             0x080080bc   Section        0  textmenu_read.o(i.TextMenu_Read_View_Status0)
    TextMenu_Read_View_Status0               0x080080bd   Thumb Code   132  textmenu_read.o(i.TextMenu_Read_View_Status0)
    i.TextMenu_Read_View_Warning             0x08008168   Section        0  textmenu_read.o(i.TextMenu_Read_View_Warning)
    TextMenu_Read_View_Warning               0x08008169   Thumb Code    38  textmenu_read.o(i.TextMenu_Read_View_Warning)
    i.TextMenu_Save                          0x080081b0   Section        0  textmenu_create.o(i.TextMenu_Save)
    TextMenu_Save                            0x080081b1   Thumb Code    98  textmenu_create.o(i.TextMenu_Save)
    i.Timer_AddFunction                      0x08008218   Section        0  timer.o(i.Timer_AddFunction)
    i.Timer_DeleteFunction                   0x080082b8   Section        0  timer.o(i.Timer_DeleteFunction)
    i.Timer_Init                             0x0800833c   Section        0  timer.o(i.Timer_Init)
    i.Timer_SetCount                         0x08008414   Section        0  timer.o(i.Timer_SetCount)
    i.Timer_SetTarget                        0x08008454   Section        0  timer.o(i.Timer_SetTarget)
    i.Timer_Start                            0x08008494   Section        0  timer.o(i.Timer_Start)
    i.Timer_StartAll                         0x080084d4   Section        0  timer.o(i.Timer_StartAll)
    i.Timer_Stop                             0x080084fc   Section        0  timer.o(i.Timer_Stop)
    i.Timer_StopAll                          0x0800853c   Section        0  timer.o(i.Timer_StopAll)
    i.Timer_ToFunction_ByID                  0x08008564   Section        0  timer.o(i.Timer_ToFunction_ByID)
    i.UsageFault_Handler                     0x08008590   Section        0  stm32f10x_it.o(i.UsageFault_Handler)
    i.__ARM_fpclassify                       0x08008594   Section        0  fpclassify.o(i.__ARM_fpclassify)
    i._is_digit                              0x080085bc   Section        0  __printf_wp.o(i._is_digit)
    i.main                                   0x080085cc   Section        0  main.o(i.main)
    locale$$code                             0x080086a4   Section       44  lc_numeric_c.o(locale$$code)
    locale$$code                             0x080086d0   Section       44  lc_ctype_c.o(locale$$code)
    x$fpl$dadd                               0x080086fc   Section      336  daddsub_clz.o(x$fpl$dadd)
    _dadd1                                   0x0800870d   Thumb Code     0  daddsub_clz.o(x$fpl$dadd)
    x$fpl$ddiv                               0x0800884c   Section      688  ddiv.o(x$fpl$ddiv)
    ddiv_entry                               0x08008853   Thumb Code     0  ddiv.o(x$fpl$ddiv)
    x$fpl$dfixu                              0x08008afc   Section       90  dfixu.o(x$fpl$dfixu)
    x$fpl$dfltu                              0x08008b56   Section       38  dflt_clz.o(x$fpl$dfltu)
    x$fpl$dmul                               0x08008b7c   Section      340  dmul.o(x$fpl$dmul)
    x$fpl$dnaninf                            0x08008cd0   Section      156  dnaninf.o(x$fpl$dnaninf)
    x$fpl$dretinf                            0x08008d6c   Section       12  dretinf.o(x$fpl$dretinf)
    x$fpl$drsb                               0x08008d78   Section       22  daddsub_clz.o(x$fpl$drsb)
    x$fpl$dsub                               0x08008d90   Section      468  daddsub_clz.o(x$fpl$dsub)
    _dsub1                                   0x08008da1   Thumb Code     0  daddsub_clz.o(x$fpl$dsub)
    x$fpl$fadd                               0x08008f64   Section      196  faddsub_clz.o(x$fpl$fadd)
    _fadd1                                   0x08008f73   Thumb Code     0  faddsub_clz.o(x$fpl$fadd)
    x$fpl$fcmpinf                            0x08009028   Section       24  fcmpi.o(x$fpl$fcmpinf)
    x$fpl$feqf                               0x08009040   Section      104  feqf.o(x$fpl$feqf)
    x$fpl$ffixu                              0x080090a8   Section       62  ffixu.o(x$fpl$ffixu)
    x$fpl$fflt                               0x080090e8   Section       48  fflt_clz.o(x$fpl$fflt)
    x$fpl$ffltu                              0x08009118   Section       38  fflt_clz.o(x$fpl$ffltu)
    x$fpl$fmul                               0x08009140   Section      258  fmul.o(x$fpl$fmul)
    x$fpl$fnaninf                            0x08009242   Section      140  fnaninf.o(x$fpl$fnaninf)
    x$fpl$fretinf                            0x080092ce   Section       10  fretinf.o(x$fpl$fretinf)
    x$fpl$fsub                               0x080092d8   Section      234  faddsub_clz.o(x$fpl$fsub)
    _fsub1                                   0x080092e7   Thumb Code     0  faddsub_clz.o(x$fpl$fsub)
    x$fpl$printf1                            0x080093c2   Section        4  printf1.o(x$fpl$printf1)
    x$fpl$printf2                            0x080093c6   Section        4  printf2.o(x$fpl$printf2)
    .constdata                               0x080093ca   Section     7576  oled_data.o(.constdata)
    x$fpl$usenofp                            0x080093ca   Section        0  usenofp.o(x$fpl$usenofp)
    .constdata                               0x0800b164   Section        3  message.o(.constdata)
    .constdata                               0x0800b167   Section      288  gamemenu.o(.constdata)
    .constdata                               0x0800b287   Section      320  gamemenu_minesweeper.o(.constdata)
    .constdata                               0x0800b3c7   Section      313  gamemenu_snake.o(.constdata)
    .constdata                               0x0800b500   Section      551  gamemenu_tetris.o(.constdata)
    .constdata                               0x0800b727   Section      288  settingmenu.o(.constdata)
    .constdata                               0x0800b847   Section      288  textmenu.o(.constdata)
    .constdata                               0x0800b967   Section      288  textmenu_create.o(.constdata)
    .constdata                               0x0800ba87   Section      288  textmenu_delete.o(.constdata)
    .constdata                               0x0800bba7   Section      288  textmenu_read.o(.constdata)
    .constdata                               0x0800bcc7   Section      288  clockmenu.o(.constdata)
    .constdata                               0x0800bde7   Section      288  clockmenu_alarm.o(.constdata)
    .constdata                               0x0800bf07   Section      288  clockmenu_setting.o(.constdata)
    .constdata                               0x0800c027   Section      288  clockmenu_time.o(.constdata)
    .constdata                               0x0800c148   Section        8  _printf_wctomb.o(.constdata)
    initial_mbstate                          0x0800c148   Data           8  _printf_wctomb.o(.constdata)
    .constdata                               0x0800c150   Section       40  _printf_hex_int_ll_ptr.o(.constdata)
    uc_hextab                                0x0800c150   Data          20  _printf_hex_int_ll_ptr.o(.constdata)
    lc_hextab                                0x0800c164   Data          20  _printf_hex_int_ll_ptr.o(.constdata)
    .constdata                               0x0800c178   Section       17  __printf_flags_ss_wp.o(.constdata)
    maptable                                 0x0800c178   Data          17  __printf_flags_ss_wp.o(.constdata)
    .constdata                               0x0800c189   Section       12  _monlen.o(.constdata)
    .constdata                               0x0800c195   Section       38  _printf_fp_hex.o(.constdata)
    lc_hextab                                0x0800c195   Data          19  _printf_fp_hex.o(.constdata)
    uc_hextab                                0x0800c1a8   Data          19  _printf_fp_hex.o(.constdata)
    .constdata                               0x0800c1bc   Section      148  bigflt0.o(.constdata)
    tenpwrs_x                                0x0800c1bc   Data          60  bigflt0.o(.constdata)
    tenpwrs_i                                0x0800c1f8   Data          64  bigflt0.o(.constdata)
    .conststring                             0x0800c250   Section        7  gamemenu.o(.conststring)
    .conststring                             0x0800c258   Section        7  gamemenu_minesweeper.o(.conststring)
    .conststring                             0x0800c260   Section       10  gamemenu_snake.o(.conststring)
    .conststring                             0x0800c26c   Section       16  gamemenu_tetris.o(.conststring)
    .conststring                             0x0800c27c   Section        7  settingmenu.o(.conststring)
    .conststring                             0x0800c284   Section       10  textmenu.o(.conststring)
    .conststring                             0x0800c290   Section        7  textmenu_create.o(.conststring)
    .conststring                             0x0800c298   Section        7  textmenu_delete.o(.conststring)
    .conststring                             0x0800c2a0   Section        7  textmenu_read.o(.conststring)
    .conststring                             0x0800c2a8   Section        7  clockmenu.o(.conststring)
    .conststring                             0x0800c2b0   Section        7  clockmenu_alarm.o(.conststring)
    .conststring                             0x0800c2b8   Section       13  clockmenu_time.o(.conststring)
    locale$$data                             0x0800c2e8   Section       28  lc_numeric_c.o(locale$$data)
    __lcnum_c_name                           0x0800c2ec   Data           2  lc_numeric_c.o(locale$$data)
    __lcnum_c_start                          0x0800c2f4   Data           0  lc_numeric_c.o(locale$$data)
    __lcnum_c_point                          0x0800c300   Data           0  lc_numeric_c.o(locale$$data)
    __lcnum_c_thousands                      0x0800c302   Data           0  lc_numeric_c.o(locale$$data)
    __lcnum_c_grouping                       0x0800c303   Data           0  lc_numeric_c.o(locale$$data)
    locale$$data                             0x0800c304   Section      272  lc_ctype_c.o(locale$$data)
    __lcnum_c_end                            0x0800c304   Data           0  lc_numeric_c.o(locale$$data)
    __lcctype_c_name                         0x0800c308   Data           2  lc_ctype_c.o(locale$$data)
    __lcctype_c_start                        0x0800c310   Data           0  lc_ctype_c.o(locale$$data)
    __lcctype_c_end                          0x0800c414   Data           0  lc_ctype_c.o(locale$$data)
    .data                                    0x20000000   Section       12  myrtc.o(.data)
    .data                                    0x2000000c   Section        2  key.o(.data)
    NowState                                 0x2000000c   Data           1  key.o(.data)
    LastState                                0x2000000d   Data           1  key.o(.data)
    .data                                    0x2000000e   Section        3  encoder.o(.data)
    Left                                     0x2000000e   Data           1  encoder.o(.data)
    Right                                    0x2000000f   Data           1  encoder.o(.data)
    ButtonFlag                               0x20000010   Data           1  encoder.o(.data)
    .data                                    0x20000014   Section        4  menu.o(.data)
    Menu_Current                             0x20000014   Data           4  menu.o(.data)
    .data                                    0x20000018   Section        4  gamemenu.o(.data)
    .data                                    0x2000001c   Section        5  gamemenu_minesweeper.o(.data)
    Status                                   0x20000020   Data           1  gamemenu_minesweeper.o(.data)
    .data                                    0x20000024   Section        5  gamemenu_snake.o(.data)
    Status                                   0x20000028   Data           1  gamemenu_snake.o(.data)
    .data                                    0x2000002c   Section       19  gamemenu_tetris.o(.data)
    fall                                     0x20000030   Data           8  gamemenu_tetris.o(.data)
    Game                                     0x20000038   Data           6  gamemenu_tetris.o(.data)
    Status                                   0x2000003e   Data           1  gamemenu_tetris.o(.data)
    .data                                    0x20000040   Section        4  settingmenu.o(.data)
    .data                                    0x20000044   Section        4  textmenu.o(.data)
    .data                                    0x20000048   Section        4  textmenu_create.o(.data)
    .data                                    0x2000004c   Section        4  textmenu_delete.o(.data)
    .data                                    0x20000050   Section        4  textmenu_read.o(.data)
    .data                                    0x20000054   Section        4  clockmenu.o(.data)
    .data                                    0x20000058   Section        5  clockmenu_alarm.o(.data)
    Status                                   0x2000005c   Data           1  clockmenu_alarm.o(.data)
    .data                                    0x20000060   Section        5  clockmenu_setting.o(.data)
    Status                                   0x20000064   Data           1  clockmenu_setting.o(.data)
    .data                                    0x20000068   Section        4  clockmenu_time.o(.data)
    .bss                                     0x2000006c   Section     1024  store.o(.bss)
    .bss                                     0x2000046c   Section     1024  oled.o(.bss)
    .bss                                     0x2000086c   Section      196  timer.o(.bss)
    TL                                       0x2000086c   Data         196  timer.o(.bss)
    .bss                                     0x20000930   Section       54  message.o(.bss)
    MQ                                       0x20000930   Data          54  message.o(.bss)
    .bss                                     0x20000968   Section       28  gamemenu.o(.bss)
    .bss                                     0x20000984   Section      290  gamemenu_minesweeper.o(.bss)
    Game                                     0x200009a0   Data         262  gamemenu_minesweeper.o(.bss)
    .bss                                     0x20000aa8   Section     3344  gamemenu_snake.o(.bss)
    Game                                     0x20000ac4   Data        3316  gamemenu_snake.o(.bss)
    .bss                                     0x200017b8   Section       80  gamemenu_tetris.o(.bss)
    ball                                     0x200017d4   Data          52  gamemenu_tetris.o(.bss)
    .bss                                     0x20001808   Section       28  settingmenu.o(.bss)
    .bss                                     0x20001824   Section       28  textmenu.o(.bss)
    .bss                                     0x20001840   Section       28  textmenu_create.o(.bss)
    .bss                                     0x2000185c   Section       28  textmenu_delete.o(.bss)
    .bss                                     0x20001878   Section       28  textmenu_read.o(.bss)
    .bss                                     0x20001894   Section       28  clockmenu.o(.bss)
    .bss                                     0x200018b0   Section       42  clockmenu_alarm.o(.bss)
    Alarm                                    0x200018cc   Data          14  clockmenu_alarm.o(.bss)
    .bss                                     0x200018dc   Section       42  clockmenu_setting.o(.bss)
    Clock                                    0x200018f8   Data          14  clockmenu_setting.o(.bss)
    .bss                                     0x20001908   Section       28  clockmenu_time.o(.bss)
    .bss                                     0x20001924   Section      228  rand.o(.bss)
    .bss                                     0x20001a08   Section       44  localtime.o(.bss)
    _tms                                     0x20001a08   Data          44  localtime.o(.bss)
    .bss                                     0x20001a34   Section       96  libspace.o(.bss)
    HEAP                                     0x20001a98   Section      512  startup_stm32f10x_md.o(HEAP)
    Heap_Mem                                 0x20001a98   Data         512  startup_stm32f10x_md.o(HEAP)
    STACK                                    0x20001c98   Section     1024  startup_stm32f10x_md.o(STACK)
    Stack_Mem                                0x20001c98   Data        1024  startup_stm32f10x_md.o(STACK)
    __initial_sp                             0x20002098   Data           0  startup_stm32f10x_md.o(STACK)

    Global Symbols

    Symbol Name                              Value     Ov Type        Size  Object(Section)

    BuildAttributes$$THM_ISAv4$P$D$K$B$S$PE$A:L22UL41UL21$X:L11$S22US41US21$IEEE1$IW$USESV6$~STKCKD$USESV7$~SHL$OTIME$ROPI$IEEEX$EBA8$UX$STANDARDLIB$REQ8$PRES8$EABIv2 0x00000000   Number         0  anon$$obj.o ABSOLUTE
    __ARM_use_no_argv                        0x00000000   Number         0  main.o ABSOLUTE
    _printf_flags                            0x00000000   Number         0  printf_stubs.o ABSOLUTE
    _printf_return_value                     0x00000000   Number         0  printf_stubs.o ABSOLUTE
    _printf_sizespec                         0x00000000   Number         0  printf_stubs.o ABSOLUTE
    _printf_widthprec                        0x00000000   Number         0  printf_stubs.o ABSOLUTE
    __ARM_exceptions_init                     - Undefined Weak Reference
    __alloca_initialize                       - Undefined Weak Reference
    __arm_preinit_                            - Undefined Weak Reference
    __cpp_initialize__aeabi_                  - Undefined Weak Reference
    __cxa_finalize                            - Undefined Weak Reference
    __sigvec_lookup                           - Undefined Weak Reference
    _atexit_init                              - Undefined Weak Reference
    _call_atexit_fns                          - Undefined Weak Reference
    _clock_init                               - Undefined Weak Reference
    _fp_trap_init                             - Undefined Weak Reference
    _fp_trap_shutdown                         - Undefined Weak Reference
    _get_lc_collate                           - Undefined Weak Reference
    _get_lc_monetary                          - Undefined Weak Reference
    _get_lc_time                              - Undefined Weak Reference
    _getenv_init                              - Undefined Weak Reference
    _handle_redirection                       - Undefined Weak Reference
    _init_alloc                               - Undefined Weak Reference
    _init_user_alloc                          - Undefined Weak Reference
    _initio                                   - Undefined Weak Reference
    _printf_mbtowc                            - Undefined Weak Reference
    _printf_wc                                - Undefined Weak Reference
    _signal_finish                            - Undefined Weak Reference
    _signal_init                              - Undefined Weak Reference
    _terminate_alloc                          - Undefined Weak Reference
    _terminate_user_alloc                     - Undefined Weak Reference
    _terminateio                              - Undefined Weak Reference
    __Vectors_Size                           0x000000ec   Number         0  startup_stm32f10x_md.o ABSOLUTE
    __Vectors                                0x08000000   Data           4  startup_stm32f10x_md.o(RESET)
    __Vectors_End                            0x080000ec   Data           0  startup_stm32f10x_md.o(RESET)
    __main                                   0x080000ed   Thumb Code     8  __main.o(!!!main)
    __scatterload                            0x080000f5   Thumb Code     0  __scatter.o(!!!scatter)
    __scatterload_rt2                        0x080000f5   Thumb Code    44  __scatter.o(!!!scatter)
    __scatterload_rt2_thumb_only             0x080000f5   Thumb Code     0  __scatter.o(!!!scatter)
    __scatterload_null                       0x08000103   Thumb Code     0  __scatter.o(!!!scatter)
    __scatterload_copy                       0x08000129   Thumb Code    26  __scatter_copy.o(!!handler_copy)
    __scatterload_zeroinit                   0x08000145   Thumb Code    28  __scatter_zi.o(!!handler_zi)
    _printf_n                                0x08000161   Thumb Code     0  _printf_n.o(.ARM.Collect$$_printf_percent$$00000001)
    _printf_percent                          0x08000161   Thumb Code     0  _printf_percent.o(.ARM.Collect$$_printf_percent$$00000000)
    _printf_p                                0x08000167   Thumb Code     0  _printf_p.o(.ARM.Collect$$_printf_percent$$00000002)
    _printf_f                                0x0800016d   Thumb Code     0  _printf_f.o(.ARM.Collect$$_printf_percent$$00000003)
    _printf_e                                0x08000173   Thumb Code     0  _printf_e.o(.ARM.Collect$$_printf_percent$$00000004)
    _printf_g                                0x08000179   Thumb Code     0  _printf_g.o(.ARM.Collect$$_printf_percent$$00000005)
    _printf_a                                0x0800017f   Thumb Code     0  _printf_a.o(.ARM.Collect$$_printf_percent$$00000006)
    _printf_ll                               0x08000185   Thumb Code     0  _printf_ll.o(.ARM.Collect$$_printf_percent$$00000007)
    _printf_i                                0x0800018f   Thumb Code     0  _printf_i.o(.ARM.Collect$$_printf_percent$$00000008)
    _printf_d                                0x08000195   Thumb Code     0  _printf_d.o(.ARM.Collect$$_printf_percent$$00000009)
    _printf_u                                0x0800019b   Thumb Code     0  _printf_u.o(.ARM.Collect$$_printf_percent$$0000000A)
    _printf_o                                0x080001a1   Thumb Code     0  _printf_o.o(.ARM.Collect$$_printf_percent$$0000000B)
    _printf_x                                0x080001a7   Thumb Code     0  _printf_x.o(.ARM.Collect$$_printf_percent$$0000000C)
    _printf_lli                              0x080001ad   Thumb Code     0  _printf_lli.o(.ARM.Collect$$_printf_percent$$0000000D)
    _printf_lld                              0x080001b3   Thumb Code     0  _printf_lld.o(.ARM.Collect$$_printf_percent$$0000000E)
    _printf_llu                              0x080001b9   Thumb Code     0  _printf_llu.o(.ARM.Collect$$_printf_percent$$0000000F)
    _printf_llo                              0x080001bf   Thumb Code     0  _printf_llo.o(.ARM.Collect$$_printf_percent$$00000010)
    _printf_llx                              0x080001c5   Thumb Code     0  _printf_llx.o(.ARM.Collect$$_printf_percent$$00000011)
    _printf_l                                0x080001cb   Thumb Code     0  _printf_l.o(.ARM.Collect$$_printf_percent$$00000012)
    _printf_c                                0x080001d5   Thumb Code     0  _printf_c.o(.ARM.Collect$$_printf_percent$$00000013)
    _printf_s                                0x080001db   Thumb Code     0  _printf_s.o(.ARM.Collect$$_printf_percent$$00000014)
    _printf_lc                               0x080001e1   Thumb Code     0  _printf_lc.o(.ARM.Collect$$_printf_percent$$00000015)
    _printf_ls                               0x080001e7   Thumb Code     0  _printf_ls.o(.ARM.Collect$$_printf_percent$$00000016)
    _printf_percent_end                      0x080001ed   Thumb Code     0  _printf_percent_end.o(.ARM.Collect$$_printf_percent$$00000017)
    __rt_lib_init                            0x080001f1   Thumb Code     0  libinit.o(.ARM.Collect$$libinit$$00000000)
    __rt_lib_init_fp_1                       0x080001f3   Thumb Code     0  libinit2.o(.ARM.Collect$$libinit$$00000002)
    __rt_lib_init_heap_1                     0x080001f3   Thumb Code     0  libinit2.o(.ARM.Collect$$libinit$$0000000A)
    __rt_lib_init_preinit_1                  0x080001f3   Thumb Code     0  libinit2.o(.ARM.Collect$$libinit$$00000004)
    __rt_lib_init_rand_2                     0x080001f3   Thumb Code     0  libinit2.o(.ARM.Collect$$libinit$$0000000D)
    __rt_lib_init_user_alloc_1               0x080001f3   Thumb Code     0  libinit2.o(.ARM.Collect$$libinit$$0000000C)
    __rt_lib_init_lc_common                  0x080001f7   Thumb Code     0  libinit2.o(.ARM.Collect$$libinit$$0000000F)
    __rt_lib_init_rand_1                     0x080001f7   Thumb Code     0  libinit2.o(.ARM.Collect$$libinit$$0000000E)
    __rt_lib_init_lc_collate_1               0x080001fd   Thumb Code     0  libinit2.o(.ARM.Collect$$libinit$$00000011)
    __rt_lib_init_lc_ctype_2                 0x080001fd   Thumb Code     0  libinit2.o(.ARM.Collect$$libinit$$00000012)
    __rt_lib_init_lc_ctype_1                 0x08000209   Thumb Code     0  libinit2.o(.ARM.Collect$$libinit$$00000013)
    __rt_lib_init_lc_monetary_1              0x08000209   Thumb Code     0  libinit2.o(.ARM.Collect$$libinit$$00000015)
    __rt_lib_init_lc_numeric_2               0x08000209   Thumb Code     0  libinit2.o(.ARM.Collect$$libinit$$00000016)
    __rt_lib_init_alloca_1                   0x08000213   Thumb Code     0  libinit2.o(.ARM.Collect$$libinit$$0000002E)
    __rt_lib_init_argv_1                     0x08000213   Thumb Code     0  libinit2.o(.ARM.Collect$$libinit$$0000002C)
    __rt_lib_init_atexit_1                   0x08000213   Thumb Code     0  libinit2.o(.ARM.Collect$$libinit$$0000001B)
    __rt_lib_init_clock_1                    0x08000213   Thumb Code     0  libinit2.o(.ARM.Collect$$libinit$$00000021)
    __rt_lib_init_cpp_1                      0x08000213   Thumb Code     0  libinit2.o(.ARM.Collect$$libinit$$00000032)
    __rt_lib_init_exceptions_1               0x08000213   Thumb Code     0  libinit2.o(.ARM.Collect$$libinit$$00000030)
    __rt_lib_init_fp_trap_1                  0x08000213   Thumb Code     0  libinit2.o(.ARM.Collect$$libinit$$0000001F)
    __rt_lib_init_getenv_1                   0x08000213   Thumb Code     0  libinit2.o(.ARM.Collect$$libinit$$00000023)
    __rt_lib_init_lc_numeric_1               0x08000213   Thumb Code     0  libinit2.o(.ARM.Collect$$libinit$$00000017)
    __rt_lib_init_lc_time_1                  0x08000213   Thumb Code     0  libinit2.o(.ARM.Collect$$libinit$$00000019)
    __rt_lib_init_return                     0x08000213   Thumb Code     0  libinit2.o(.ARM.Collect$$libinit$$00000033)
    __rt_lib_init_signal_1                   0x08000213   Thumb Code     0  libinit2.o(.ARM.Collect$$libinit$$0000001D)
    __rt_lib_init_stdio_1                    0x08000213   Thumb Code     0  libinit2.o(.ARM.Collect$$libinit$$00000025)
    __rt_lib_shutdown                        0x08000215   Thumb Code     0  libshutdown.o(.ARM.Collect$$libshutdown$$00000000)
    __rt_lib_shutdown_cpp_1                  0x08000217   Thumb Code     0  libshutdown2.o(.ARM.Collect$$libshutdown$$00000002)
    __rt_lib_shutdown_fp_trap_1              0x08000217   Thumb Code     0  libshutdown2.o(.ARM.Collect$$libshutdown$$00000007)
    __rt_lib_shutdown_heap_1                 0x08000217   Thumb Code     0  libshutdown2.o(.ARM.Collect$$libshutdown$$0000000F)
    __rt_lib_shutdown_return                 0x08000217   Thumb Code     0  libshutdown2.o(.ARM.Collect$$libshutdown$$00000010)
    __rt_lib_shutdown_signal_1               0x08000217   Thumb Code     0  libshutdown2.o(.ARM.Collect$$libshutdown$$0000000A)
    __rt_lib_shutdown_stdio_1                0x08000217   Thumb Code     0  libshutdown2.o(.ARM.Collect$$libshutdown$$00000004)
    __rt_lib_shutdown_user_alloc_1           0x08000217   Thumb Code     0  libshutdown2.o(.ARM.Collect$$libshutdown$$0000000C)
    __rt_entry                               0x08000219   Thumb Code     0  __rtentry.o(.ARM.Collect$$rtentry$$00000000)
    __rt_entry_presh_1                       0x08000219   Thumb Code     0  __rtentry2.o(.ARM.Collect$$rtentry$$00000002)
    __rt_entry_sh                            0x08000219   Thumb Code     0  __rtentry4.o(.ARM.Collect$$rtentry$$00000004)
    __rt_entry_li                            0x0800021f   Thumb Code     0  __rtentry2.o(.ARM.Collect$$rtentry$$0000000A)
    __rt_entry_postsh_1                      0x0800021f   Thumb Code     0  __rtentry2.o(.ARM.Collect$$rtentry$$00000009)
    __rt_entry_main                          0x08000223   Thumb Code     0  __rtentry2.o(.ARM.Collect$$rtentry$$0000000D)
    __rt_entry_postli_1                      0x08000223   Thumb Code     0  __rtentry2.o(.ARM.Collect$$rtentry$$0000000C)
    __rt_exit                                0x0800022b   Thumb Code     0  rtexit.o(.ARM.Collect$$rtexit$$00000000)
    __rt_exit_ls                             0x0800022d   Thumb Code     0  rtexit2.o(.ARM.Collect$$rtexit$$00000003)
    __rt_exit_prels_1                        0x0800022d   Thumb Code     0  rtexit2.o(.ARM.Collect$$rtexit$$00000002)
    __rt_exit_exit                           0x08000231   Thumb Code     0  rtexit2.o(.ARM.Collect$$rtexit$$00000004)
    rand                                     0x08000239   Thumb Code    48  rand.o(.emb_text)
    Reset_Handler                            0x0800026d   Thumb Code     8  startup_stm32f10x_md.o(.text)
    ADC1_2_IRQHandler                        0x08000287   Thumb Code     0  startup_stm32f10x_md.o(.text)
    CAN1_RX1_IRQHandler                      0x08000287   Thumb Code     0  startup_stm32f10x_md.o(.text)
    CAN1_SCE_IRQHandler                      0x08000287   Thumb Code     0  startup_stm32f10x_md.o(.text)
    DMA1_Channel1_IRQHandler                 0x08000287   Thumb Code     0  startup_stm32f10x_md.o(.text)
    DMA1_Channel2_IRQHandler                 0x08000287   Thumb Code     0  startup_stm32f10x_md.o(.text)
    DMA1_Channel3_IRQHandler                 0x08000287   Thumb Code     0  startup_stm32f10x_md.o(.text)
    DMA1_Channel4_IRQHandler                 0x08000287   Thumb Code     0  startup_stm32f10x_md.o(.text)
    DMA1_Channel5_IRQHandler                 0x08000287   Thumb Code     0  startup_stm32f10x_md.o(.text)
    DMA1_Channel6_IRQHandler                 0x08000287   Thumb Code     0  startup_stm32f10x_md.o(.text)
    DMA1_Channel7_IRQHandler                 0x08000287   Thumb Code     0  startup_stm32f10x_md.o(.text)
    EXTI0_IRQHandler                         0x08000287   Thumb Code     0  startup_stm32f10x_md.o(.text)
    EXTI15_10_IRQHandler                     0x08000287   Thumb Code     0  startup_stm32f10x_md.o(.text)
    EXTI1_IRQHandler                         0x08000287   Thumb Code     0  startup_stm32f10x_md.o(.text)
    EXTI2_IRQHandler                         0x08000287   Thumb Code     0  startup_stm32f10x_md.o(.text)
    EXTI3_IRQHandler                         0x08000287   Thumb Code     0  startup_stm32f10x_md.o(.text)
    EXTI4_IRQHandler                         0x08000287   Thumb Code     0  startup_stm32f10x_md.o(.text)
    EXTI9_5_IRQHandler                       0x08000287   Thumb Code     0  startup_stm32f10x_md.o(.text)
    FLASH_IRQHandler                         0x08000287   Thumb Code     0  startup_stm32f10x_md.o(.text)
    I2C1_ER_IRQHandler                       0x08000287   Thumb Code     0  startup_stm32f10x_md.o(.text)
    I2C1_EV_IRQHandler                       0x08000287   Thumb Code     0  startup_stm32f10x_md.o(.text)
    I2C2_ER_IRQHandler                       0x08000287   Thumb Code     0  startup_stm32f10x_md.o(.text)
    I2C2_EV_IRQHandler                       0x08000287   Thumb Code     0  startup_stm32f10x_md.o(.text)
    PVD_IRQHandler                           0x08000287   Thumb Code     0  startup_stm32f10x_md.o(.text)
    RCC_IRQHandler                           0x08000287   Thumb Code     0  startup_stm32f10x_md.o(.text)
    RTCAlarm_IRQHandler                      0x08000287   Thumb Code     0  startup_stm32f10x_md.o(.text)
    SPI1_IRQHandler                          0x08000287   Thumb Code     0  startup_stm32f10x_md.o(.text)
    SPI2_IRQHandler                          0x08000287   Thumb Code     0  startup_stm32f10x_md.o(.text)
    TAMPER_IRQHandler                        0x08000287   Thumb Code     0  startup_stm32f10x_md.o(.text)
    TIM1_BRK_IRQHandler                      0x08000287   Thumb Code     0  startup_stm32f10x_md.o(.text)
    TIM1_CC_IRQHandler                       0x08000287   Thumb Code     0  startup_stm32f10x_md.o(.text)
    TIM1_TRG_COM_IRQHandler                  0x08000287   Thumb Code     0  startup_stm32f10x_md.o(.text)
    TIM1_UP_IRQHandler                       0x08000287   Thumb Code     0  startup_stm32f10x_md.o(.text)
    TIM3_IRQHandler                          0x08000287   Thumb Code     0  startup_stm32f10x_md.o(.text)
    TIM4_IRQHandler                          0x08000287   Thumb Code     0  startup_stm32f10x_md.o(.text)
    USART1_IRQHandler                        0x08000287   Thumb Code     0  startup_stm32f10x_md.o(.text)
    USART2_IRQHandler                        0x08000287   Thumb Code     0  startup_stm32f10x_md.o(.text)
    USART3_IRQHandler                        0x08000287   Thumb Code     0  startup_stm32f10x_md.o(.text)
    USBWakeUp_IRQHandler                     0x08000287   Thumb Code     0  startup_stm32f10x_md.o(.text)
    USB_HP_CAN1_TX_IRQHandler                0x08000287   Thumb Code     0  startup_stm32f10x_md.o(.text)
    USB_LP_CAN1_RX0_IRQHandler               0x08000287   Thumb Code     0  startup_stm32f10x_md.o(.text)
    WWDG_IRQHandler                          0x08000287   Thumb Code     0  startup_stm32f10x_md.o(.text)
    __user_initial_stackheap                 0x08000289   Thumb Code     0  startup_stm32f10x_md.o(.text)
    vsprintf                                 0x080002ad   Thumb Code    32  vsprintf.o(.text)
    srand                                    0x080002d1   Thumb Code    42  rand.o(.text)
    _rand_init                               0x080002fb   Thumb Code     4  rand.o(.text)
    strlen                                   0x0800030d   Thumb Code    62  strlen.o(.text)
    __aeabi_memcpy4                          0x0800034b   Thumb Code     0  rt_memcpy_w.o(.text)
    __aeabi_memcpy8                          0x0800034b   Thumb Code     0  rt_memcpy_w.o(.text)
    __rt_memcpy_w                            0x0800034b   Thumb Code   100  rt_memcpy_w.o(.text)
    _memcpy_lastbytes_aligned                0x08000393   Thumb Code     0  rt_memcpy_w.o(.text)
    __aeabi_memclr4                          0x080003af   Thumb Code     0  rt_memclr_w.o(.text)
    __aeabi_memclr8                          0x080003af   Thumb Code     0  rt_memclr_w.o(.text)
    __rt_memclr_w                            0x080003af   Thumb Code    78  rt_memclr_w.o(.text)
    _memset_w                                0x080003b3   Thumb Code     0  rt_memclr_w.o(.text)
    strcmp                                   0x080003fd   Thumb Code   128  strcmpv7m.o(.text)
    localtime                                0x0800047d   Thumb Code     6  localtime.o(.text)
    mktime                                   0x080004c7   Thumb Code   356  mktime.o(.text)
    __use_two_region_memory                  0x08000635   Thumb Code     2  heapauxi.o(.text)
    __rt_heap_escrow$2region                 0x08000637   Thumb Code     2  heapauxi.o(.text)
    __rt_heap_expand$2region                 0x08000639   Thumb Code     2  heapauxi.o(.text)
    _printf_pre_padding                      0x0800063b   Thumb Code    44  _printf_pad.o(.text)
    _printf_post_padding                     0x08000667   Thumb Code    34  _printf_pad.o(.text)
    _printf_truncate_signed                  0x08000689   Thumb Code    18  _printf_truncate.o(.text)
    _printf_truncate_unsigned                0x0800069b   Thumb Code    18  _printf_truncate.o(.text)
    _printf_str                              0x080006ad   Thumb Code    82  _printf_str.o(.text)
    _printf_int_dec                          0x08000701   Thumb Code   104  _printf_dec.o(.text)
    _printf_charcount                        0x08000779   Thumb Code    40  _printf_charcount.o(.text)
    _printf_char_common                      0x080007ab   Thumb Code    32  _printf_char_common.o(.text)
    _sputc                                   0x080007d1   Thumb Code    10  _sputc.o(.text)
    _printf_wctomb                           0x080007dd   Thumb Code   182  _printf_wctomb.o(.text)
    _printf_longlong_dec                     0x08000899   Thumb Code   108  _printf_longlong_dec.o(.text)
    _printf_longlong_oct                     0x08000915   Thumb Code    66  _printf_oct_int_ll.o(.text)
    _printf_int_oct                          0x08000957   Thumb Code    24  _printf_oct_int_ll.o(.text)
    _printf_ll_oct                           0x0800096f   Thumb Code    12  _printf_oct_int_ll.o(.text)
    _printf_longlong_hex                     0x08000985   Thumb Code    86  _printf_hex_int_ll_ptr.o(.text)
    _printf_int_hex                          0x080009db   Thumb Code    28  _printf_hex_int_ll_ptr.o(.text)
    _printf_ll_hex                           0x080009f7   Thumb Code    12  _printf_hex_int_ll_ptr.o(.text)
    _printf_hex_ptr                          0x08000a03   Thumb Code    18  _printf_hex_int_ll_ptr.o(.text)
    __printf                                 0x08000a19   Thumb Code   388  __printf_flags_ss_wp.o(.text)
    _localtime_r                             0x08000ba1   Thumb Code   178  localtime_internal.o(.text)
    _n$localtime_r                           0x08000ba1   Thumb Code     0  localtime_internal.o(.text)
    _ll_udiv10                               0x08000c59   Thumb Code   138  lludiv10.o(.text)
    _printf_int_common                       0x08000ce3   Thumb Code   178  _printf_intcommon.o(.text)
    __lib_sel_fp_printf                      0x08000d95   Thumb Code     2  _printf_fp_dec.o(.text)
    _printf_fp_dec_real                      0x08000f47   Thumb Code   620  _printf_fp_dec.o(.text)
    _printf_fp_hex_real                      0x080011b5   Thumb Code   756  _printf_fp_hex.o(.text)
    _printf_cs_common                        0x080014b1   Thumb Code    20  _printf_char.o(.text)
    _printf_char                             0x080014c5   Thumb Code    16  _printf_char.o(.text)
    _printf_string                           0x080014d5   Thumb Code     8  _printf_char.o(.text)
    _printf_lcs_common                       0x080014dd   Thumb Code    20  _printf_wchar.o(.text)
    _printf_wchar                            0x080014f1   Thumb Code    16  _printf_wchar.o(.text)
    _printf_wstring                          0x08001501   Thumb Code     8  _printf_wchar.o(.text)
    _wcrtomb                                 0x08001509   Thumb Code    64  _wcrtomb.o(.text)
    __user_libspace                          0x08001549   Thumb Code     8  libspace.o(.text)
    __user_perproc_libspace                  0x08001549   Thumb Code     0  libspace.o(.text)
    __user_perthread_libspace                0x08001549   Thumb Code     0  libspace.o(.text)
    __user_setup_stackheap                   0x08001551   Thumb Code    74  sys_stackheap_outer.o(.text)
    __rt_ctype_table                         0x0800159d   Thumb Code    16  rt_ctype_table.o(.text)
    __rt_locale                              0x080015ad   Thumb Code     8  rt_locale_intlibspace.o(.text)
    _printf_fp_infnan                        0x080015b5   Thumb Code   112  _printf_fp_infnan.o(.text)
    _btod_etento                             0x08001635   Thumb Code   224  bigflt0.o(.text)
    exit                                     0x08001719   Thumb Code    18  exit.o(.text)
    __I$use$semihosting                      0x0800172b   Thumb Code     0  use_no_semi.o(.text)
    __use_no_semihosting_swi                 0x0800172b   Thumb Code     2  use_no_semi.o(.text)
    __semihosting_library_function           0x0800172d   Thumb Code     0  indicate_semi.o(.text)
    _sys_exit                                0x0800172d   Thumb Code     8  sys_exit.o(.text)
    _btod_d2e                                0x08001739   Thumb Code    62  btod.o(CL$$btod_d2e)
    _d2e_denorm_low                          0x08001777   Thumb Code    70  btod.o(CL$$btod_d2e_denorm_low)
    _d2e_norm_op1                            0x080017bd   Thumb Code    96  btod.o(CL$$btod_d2e_norm_op1)
    __btod_div_common                        0x0800181d   Thumb Code   696  btod.o(CL$$btod_div_common)
    _e2e                                     0x08001b55   Thumb Code   220  btod.o(CL$$btod_e2e)
    _btod_ediv                               0x08001c31   Thumb Code    42  btod.o(CL$$btod_ediv)
    _btod_emul                               0x08001c5b   Thumb Code    42  btod.o(CL$$btod_emul)
    __btod_mult_common                       0x08001c85   Thumb Code   580  btod.o(CL$$btod_mult_common)
    BKP_ReadBackupRegister                   0x08001ec9   Thumb Code    24  stm32f10x_bkp.o(i.BKP_ReadBackupRegister)
    BKP_WriteBackupRegister                  0x08001ee5   Thumb Code    22  stm32f10x_bkp.o(i.BKP_WriteBackupRegister)
    BusFault_Handler                         0x08001f01   Thumb Code     4  stm32f10x_it.o(i.BusFault_Handler)
    ClockMenu_Alarm_Init                     0x080024a9   Thumb Code    80  clockmenu_alarm.o(i.ClockMenu_Alarm_Init)
    ClockMenu_Funsion                        0x0800288d   Thumb Code     2  clockmenu.o(i.ClockMenu_Funsion)
    ClockMenu_Init                           0x08002891   Thumb Code    62  clockmenu.o(i.ClockMenu_Init)
    ClockMenu_Setting_Funsion                0x080028ed   Thumb Code  1270  clockmenu_setting.o(i.ClockMenu_Setting_Funsion)
    ClockMenu_Setting_Init                   0x08002de9   Thumb Code    84  clockmenu_setting.o(i.ClockMenu_Setting_Init)
    ClockMenu_Time_Init                      0x08002ea1   Thumb Code    34  clockmenu_time.o(i.ClockMenu_Time_Init)
    DebugMon_Handler                         0x08002fe5   Thumb Code     2  stm32f10x_it.o(i.DebugMon_Handler)
    Delay_ms                                 0x08002fe7   Thumb Code    24  delay.o(i.Delay_ms)
    Delay_us                                 0x08002fff   Thumb Code    46  delay.o(i.Delay_us)
    Encoder_Init                             0x08003049   Thumb Code   172  encoder.o(i.Encoder_Init)
    Encoder_Loop                             0x08003101   Thumb Code   196  encoder.o(i.Encoder_Loop)
    FLASH_ErasePage                          0x080031d5   Thumb Code    72  stm32f10x_flash.o(i.FLASH_ErasePage)
    FLASH_GetBank1Status                     0x08003221   Thumb Code    48  stm32f10x_flash.o(i.FLASH_GetBank1Status)
    FLASH_Lock                               0x08003255   Thumb Code    14  stm32f10x_flash.o(i.FLASH_Lock)
    FLASH_ProgramHalfWord                    0x08003269   Thumb Code    60  stm32f10x_flash.o(i.FLASH_ProgramHalfWord)
    FLASH_Unlock                             0x080032a9   Thumb Code    12  stm32f10x_flash.o(i.FLASH_Unlock)
    FLASH_WaitForLastOperation               0x080032c1   Thumb Code    38  stm32f10x_flash.o(i.FLASH_WaitForLastOperation)
    GPIO_Init                                0x080032e7   Thumb Code   278  stm32f10x_gpio.o(i.GPIO_Init)
    GPIO_ReadInputDataBit                    0x080033fd   Thumb Code    18  stm32f10x_gpio.o(i.GPIO_ReadInputDataBit)
    GPIO_WriteBit                            0x0800340f   Thumb Code    10  stm32f10x_gpio.o(i.GPIO_WriteBit)
    GUI_Display                              0x08003419   Thumb Code   224  gui.o(i.GUI_Display)
    GUI_Init                                 0x08003509   Thumb Code    34  gui.o(i.GUI_Init)
    GUI_ReceiveCommand                       0x08003531   Thumb Code    56  gui.o(i.GUI_ReceiveCommand)
    GameMenu_Funsion                         0x0800373b   Thumb Code     2  gamemenu.o(i.GameMenu_Funsion)
    GameMenu_Init                            0x0800373d   Thumb Code    62  gamemenu.o(i.GameMenu_Init)
    GameMenu_Minesweeper_Funsion             0x08003799   Thumb Code   584  gamemenu_minesweeper.o(i.GameMenu_Minesweeper_Funsion)
    GameMenu_Minesweeper_Init                0x080039e9   Thumb Code    52  gamemenu_minesweeper.o(i.GameMenu_Minesweeper_Init)
    GameMenu_Snake_Init                      0x08003ee5   Thumb Code    52  gamemenu_snake.o(i.GameMenu_Snake_Init)
    GameMenu_Tetris_Init                     0x080042e5   Thumb Code    38  gamemenu_tetris.o(i.GameMenu_Tetris_Init)
    HardFault_Handler                        0x080044f9   Thumb Code     4  stm32f10x_it.o(i.HardFault_Handler)
    IWDG_Enable                              0x080044fd   Thumb Code    10  stm32f10x_iwdg.o(i.IWDG_Enable)
    IWDG_Init                                0x0800450d   Thumb Code    50  main.o(i.IWDG_Init)
    IWDG_ReloadCounter                       0x08004545   Thumb Code    10  stm32f10x_iwdg.o(i.IWDG_ReloadCounter)
    IWDG_SetPrescaler                        0x08004555   Thumb Code     6  stm32f10x_iwdg.o(i.IWDG_SetPrescaler)
    IWDG_SetReload                           0x08004561   Thumb Code     6  stm32f10x_iwdg.o(i.IWDG_SetReload)
    IWDG_WriteAccessCmd                      0x0800456d   Thumb Code     6  stm32f10x_iwdg.o(i.IWDG_WriteAccessCmd)
    Key_Init                                 0x080045b9   Thumb Code    80  key.o(i.Key_Init)
    Key_Loop                                 0x08004615   Thumb Code   314  key.o(i.Key_Loop)
    MSG_DefaultProc                          0x08004759   Thumb Code    24  msg.o(i.MSG_DefaultProc)
    MSG_GetMessage                           0x08004771   Thumb Code    62  message.o(i.MSG_GetMessage)
    MSG_Init                                 0x080047b5   Thumb Code    20  message.o(i.MSG_Init)
    MSG_SendMessage                          0x08004819   Thumb Code   270  message.o(i.MSG_SendMessage)
    MemManage_Handler                        0x08004945   Thumb Code     4  stm32f10x_it.o(i.MemManage_Handler)
    Menu_GetFather                           0x08004949   Thumb Code     8  menu.o(i.Menu_GetFather)
    Menu_GetIcon                             0x08004955   Thumb Code     8  menu.o(i.Menu_GetIcon)
    Menu_GetLast                             0x08004961   Thumb Code     8  menu.o(i.Menu_GetLast)
    Menu_GetName                             0x0800496d   Thumb Code     8  menu.o(i.Menu_GetName)
    Menu_GetNext                             0x08004979   Thumb Code     8  menu.o(i.Menu_GetNext)
    Menu_Init                                0x08004985   Thumb Code    18  menu.o(i.Menu_Init)
    Menu_SetChild                            0x08004997   Thumb Code    58  menu.o(i.Menu_SetChild)
    Menu_SetCurrent                          0x080049d1   Thumb Code     6  menu.o(i.Menu_SetCurrent)
    Menu_SetFather                           0x080049dd   Thumb Code    40  menu.o(i.Menu_SetFather)
    Menu_SetNext                             0x08004a05   Thumb Code     6  menu.o(i.Menu_SetNext)
    Menu_ToChild                             0x08004a0d   Thumb Code    26  menu.o(i.Menu_ToChild)
    Menu_ToFather                            0x08004a2d   Thumb Code    42  menu.o(i.Menu_ToFather)
    Menu_ToFunsion                           0x08004a5d   Thumb Code    26  menu.o(i.Menu_ToFunsion)
    Menu_ToLast                              0x08004a7d   Thumb Code    26  menu.o(i.Menu_ToLast)
    Menu_ToNext                              0x08004a9d   Thumb Code    26  menu.o(i.Menu_ToNext)
    Minesweeper_Loop                         0x08004d65   Thumb Code    64  gamemenu_minesweeper.o(i.Minesweeper_Loop)
    MyFLASH_ErasePage                        0x08004fd9   Thumb Code    20  myflash.o(i.MyFLASH_ErasePage)
    MyFLASH_ProgramHalfWord                  0x08004fed   Thumb Code    24  myflash.o(i.MyFLASH_ProgramHalfWord)
    MyFLASH_ReadHalfWord                     0x08005005   Thumb Code     6  myflash.o(i.MyFLASH_ReadHalfWord)
    MyRTC_Init                               0x0800500b   Thumb Code   114  myrtc.o(i.MyRTC_Init)
    MyRTC_ReadTime                           0x0800507d   Thumb Code    64  myrtc.o(i.MyRTC_ReadTime)
    MyRTC_SetAlarm                           0x080050c1   Thumb Code    58  myrtc.o(i.MyRTC_SetAlarm)
    MyRTC_SetTime                            0x080050fd   Thumb Code    68  myrtc.o(i.MyRTC_SetTime)
    MyRTC_TurnOffAlarm                       0x08005145   Thumb Code    52  myrtc.o(i.MyRTC_TurnOffAlarm)
    MyRTC_TurnOnAlarm                        0x08005179   Thumb Code    52  myrtc.o(i.MyRTC_TurnOnAlarm)
    NMI_Handler                              0x080051ad   Thumb Code     2  stm32f10x_it.o(i.NMI_Handler)
    NVIC_Init                                0x080051b1   Thumb Code   100  misc.o(i.NVIC_Init)
    NVIC_PriorityGroupConfig                 0x08005221   Thumb Code    10  misc.o(i.NVIC_PriorityGroupConfig)
    OLED_Clear                               0x08005235   Thumb Code    36  oled.o(i.OLED_Clear)
    OLED_ClearArea                           0x0800525d   Thumb Code   186  oled.o(i.OLED_ClearArea)
    OLED_CopyDisplayBuf                      0x0800531d   Thumb Code    48  oled.o(i.OLED_CopyDisplayBuf)
    OLED_DrawLine                            0x08005351   Thumb Code   374  oled.o(i.OLED_DrawLine)
    OLED_DrawPoint                           0x080054c9   Thumb Code    74  oled.o(i.OLED_DrawPoint)
    OLED_DrawRectangle                       0x08005519   Thumb Code   142  oled.o(i.OLED_DrawRectangle)
    OLED_GPIO_Init                           0x080055a9   Thumb Code    92  oled.o(i.OLED_GPIO_Init)
    OLED_I2C_SendByte                        0x08005609   Thumb Code    62  oled.o(i.OLED_I2C_SendByte)
    OLED_I2C_Start                           0x08005647   Thumb Code    28  oled.o(i.OLED_I2C_Start)
    OLED_I2C_Stop                            0x08005663   Thumb Code    22  oled.o(i.OLED_I2C_Stop)
    OLED_Init                                0x08005679   Thumb Code   154  oled.o(i.OLED_Init)
    OLED_Printf                              0x08005713   Thumb Code    50  oled.o(i.OLED_Printf)
    OLED_ReverseArea                         0x08005745   Thumb Code   186  oled.o(i.OLED_ReverseArea)
    OLED_SetCursor                           0x08005805   Thumb Code    34  oled.o(i.OLED_SetCursor)
    OLED_ShowChar                            0x08005829   Thumb Code    74  oled.o(i.OLED_ShowChar)
    OLED_ShowChinese                         0x0800587d   Thumb Code   144  oled.o(i.OLED_ShowChinese)
    OLED_ShowImage                           0x08005915   Thumb Code   322  oled.o(i.OLED_ShowImage)
    OLED_ShowString                          0x08005a5d   Thumb Code    46  oled.o(i.OLED_ShowString)
    OLED_Update                              0x08005a8d   Thumb Code    36  oled.o(i.OLED_Update)
    OLED_UpdateArea                          0x08005ab5   Thumb Code   120  oled.o(i.OLED_UpdateArea)
    OLED_W_SCL                               0x08005b31   Thumb Code    18  oled.o(i.OLED_W_SCL)
    OLED_W_SDA                               0x08005b49   Thumb Code    18  oled.o(i.OLED_W_SDA)
    OLED_WriteCommand                        0x08005b61   Thumb Code    32  oled.o(i.OLED_WriteCommand)
    OLED_WriteData                           0x08005b81   Thumb Code    46  oled.o(i.OLED_WriteData)
    PWR_BackupAccessCmd                      0x08005bb1   Thumb Code     6  stm32f10x_pwr.o(i.PWR_BackupAccessCmd)
    PendSV_Handler                           0x08005bbd   Thumb Code     2  stm32f10x_it.o(i.PendSV_Handler)
    RCC_APB1PeriphClockCmd                   0x08005bc1   Thumb Code    26  stm32f10x_rcc.o(i.RCC_APB1PeriphClockCmd)
    RCC_APB2PeriphClockCmd                   0x08005be1   Thumb Code    26  stm32f10x_rcc.o(i.RCC_APB2PeriphClockCmd)
    RCC_ClearFlag                            0x08005c01   Thumb Code    14  stm32f10x_rcc.o(i.RCC_ClearFlag)
    RCC_GetFlagStatus                        0x08005c15   Thumb Code    56  stm32f10x_rcc.o(i.RCC_GetFlagStatus)
    RCC_LSEConfig                            0x08005c51   Thumb Code    46  stm32f10x_rcc.o(i.RCC_LSEConfig)
    RCC_RTCCLKCmd                            0x08005c85   Thumb Code     6  stm32f10x_rcc.o(i.RCC_RTCCLKCmd)
    RCC_RTCCLKConfig                         0x08005c91   Thumb Code    12  stm32f10x_rcc.o(i.RCC_RTCCLKConfig)
    RTC_ClearITPendingBit                    0x08005ca1   Thumb Code    12  stm32f10x_rtc.o(i.RTC_ClearITPendingBit)
    RTC_EnterConfigMode                      0x08005cb1   Thumb Code    14  stm32f10x_rtc.o(i.RTC_EnterConfigMode)
    RTC_ExitConfigMode                       0x08005cc5   Thumb Code    16  stm32f10x_rtc.o(i.RTC_ExitConfigMode)
    RTC_GetCounter                           0x08005cd9   Thumb Code    16  stm32f10x_rtc.o(i.RTC_GetCounter)
    RTC_GetITStatus                          0x08005ced   Thumb Code    32  stm32f10x_rtc.o(i.RTC_GetITStatus)
    RTC_IRQHandler                           0x08005d11   Thumb Code   270  clockmenu_alarm.o(i.RTC_IRQHandler)
    RTC_ITConfig                             0x08005e41   Thumb Code    26  stm32f10x_rtc.o(i.RTC_ITConfig)
    RTC_SetAlarm                             0x08005e61   Thumb Code    24  stm32f10x_rtc.o(i.RTC_SetAlarm)
    RTC_SetCounter                           0x08005e7d   Thumb Code    24  stm32f10x_rtc.o(i.RTC_SetCounter)
    RTC_SetPrescaler                         0x08005e99   Thumb Code    26  stm32f10x_rtc.o(i.RTC_SetPrescaler)
    RTC_WaitForLastTask                      0x08005eb9   Thumb Code    16  stm32f10x_rtc.o(i.RTC_WaitForLastTask)
    RTC_WaitForSynchro                       0x08005ecd   Thumb Code    30  stm32f10x_rtc.o(i.RTC_WaitForSynchro)
    SVC_Handler                              0x08005ef1   Thumb Code     2  stm32f10x_it.o(i.SVC_Handler)
    SettingMenu_Funsion                      0x08005fdd   Thumb Code     2  settingmenu.o(i.SettingMenu_Funsion)
    SettingMenu_Init                         0x08005fe1   Thumb Code    26  settingmenu.o(i.SettingMenu_Init)
    Snake_Loop                               0x08006339   Thumb Code   758  gamemenu_snake.o(i.Snake_Loop)
    Store_Init                               0x08006745   Thumb Code    92  store.o(i.Store_Init)
    Store_Save                               0x080067a9   Thumb Code    42  store.o(i.Store_Save)
    SysTick_Handler                          0x080067dd   Thumb Code     2  stm32f10x_it.o(i.SysTick_Handler)
    SystemInit                               0x080067e1   Thumb Code    78  system_stm32f10x.o(i.SystemInit)
    TIM2_IRQHandler                          0x08006a81   Thumb Code   162  timer.o(i.TIM2_IRQHandler)
    TIM_ClearFlag                            0x08006b29   Thumb Code     6  stm32f10x_tim.o(i.TIM_ClearFlag)
    TIM_ClearITPendingBit                    0x08006b2f   Thumb Code     6  stm32f10x_tim.o(i.TIM_ClearITPendingBit)
    TIM_Cmd                                  0x08006b35   Thumb Code    24  stm32f10x_tim.o(i.TIM_Cmd)
    TIM_EncoderInterfaceConfig               0x08006b4d   Thumb Code    66  stm32f10x_tim.o(i.TIM_EncoderInterfaceConfig)
    TIM_GetCounter                           0x08006b8f   Thumb Code     6  stm32f10x_tim.o(i.TIM_GetCounter)
    TIM_GetITStatus                          0x08006b95   Thumb Code    34  stm32f10x_tim.o(i.TIM_GetITStatus)
    TIM_ICInit                               0x08006bb9   Thumb Code   150  stm32f10x_tim.o(i.TIM_ICInit)
    TIM_ICStructInit                         0x08006c65   Thumb Code    18  stm32f10x_tim.o(i.TIM_ICStructInit)
    TIM_ITConfig                             0x08006c77   Thumb Code    18  stm32f10x_tim.o(i.TIM_ITConfig)
    TIM_InternalClockConfig                  0x08006c89   Thumb Code    12  stm32f10x_tim.o(i.TIM_InternalClockConfig)
    TIM_SetCounter                           0x08006c95   Thumb Code     4  stm32f10x_tim.o(i.TIM_SetCounter)
    TIM_SetIC1Prescaler                      0x08006c99   Thumb Code    18  stm32f10x_tim.o(i.TIM_SetIC1Prescaler)
    TIM_SetIC2Prescaler                      0x08006cab   Thumb Code    26  stm32f10x_tim.o(i.TIM_SetIC2Prescaler)
    TIM_SetIC3Prescaler                      0x08006cc5   Thumb Code    18  stm32f10x_tim.o(i.TIM_SetIC3Prescaler)
    TIM_SetIC4Prescaler                      0x08006cd7   Thumb Code    26  stm32f10x_tim.o(i.TIM_SetIC4Prescaler)
    TIM_TimeBaseInit                         0x08006cf1   Thumb Code   122  stm32f10x_tim.o(i.TIM_TimeBaseInit)
    TextMenu_Create_Init                     0x080078a1   Thumb Code    38  textmenu_create.o(i.TextMenu_Create_Init)
    TextMenu_Delete_Init                     0x08007d39   Thumb Code    38  textmenu_delete.o(i.TextMenu_Delete_Init)
    TextMenu_Init                            0x08007e69   Thumb Code    62  textmenu.o(i.TextMenu_Init)
    TextMenu_Read_Init                       0x08008085   Thumb Code    38  textmenu_read.o(i.TextMenu_Read_Init)
    Timer_AddFunction                        0x08008219   Thumb Code   156  timer.o(i.Timer_AddFunction)
    Timer_DeleteFunction                     0x080082b9   Thumb Code   126  timer.o(i.Timer_DeleteFunction)
    Timer_Init                               0x0800833d   Thumb Code   212  timer.o(i.Timer_Init)
    Timer_SetCount                           0x08008415   Thumb Code    58  timer.o(i.Timer_SetCount)
    Timer_SetTarget                          0x08008455   Thumb Code    58  timer.o(i.Timer_SetTarget)
    Timer_Start                              0x08008495   Thumb Code    60  timer.o(i.Timer_Start)
    Timer_StartAll                           0x080084d5   Thumb Code    36  timer.o(i.Timer_StartAll)
    Timer_Stop                               0x080084fd   Thumb Code    60  timer.o(i.Timer_Stop)
    Timer_StopAll                            0x0800853d   Thumb Code    36  timer.o(i.Timer_StopAll)
    Timer_ToFunction_ByID                    0x08008565   Thumb Code    40  timer.o(i.Timer_ToFunction_ByID)
    UsageFault_Handler                       0x08008591   Thumb Code     4  stm32f10x_it.o(i.UsageFault_Handler)
    __ARM_fpclassify                         0x08008595   Thumb Code    40  fpclassify.o(i.__ARM_fpclassify)
    _is_digit                                0x080085bd   Thumb Code    14  __printf_wp.o(i._is_digit)
    main                                     0x080085cd   Thumb Code   206  main.o(i.main)
    _get_lc_numeric                          0x080086a5   Thumb Code    44  lc_numeric_c.o(locale$$code)
    _get_lc_ctype                            0x080086d1   Thumb Code    44  lc_ctype_c.o(locale$$code)
    __aeabi_dadd                             0x080086fd   Thumb Code     0  daddsub_clz.o(x$fpl$dadd)
    _dadd                                    0x080086fd   Thumb Code   332  daddsub_clz.o(x$fpl$dadd)
    __aeabi_ddiv                             0x0800884d   Thumb Code     0  ddiv.o(x$fpl$ddiv)
    _ddiv                                    0x0800884d   Thumb Code   552  ddiv.o(x$fpl$ddiv)
    __aeabi_d2uiz                            0x08008afd   Thumb Code     0  dfixu.o(x$fpl$dfixu)
    _dfixu                                   0x08008afd   Thumb Code    90  dfixu.o(x$fpl$dfixu)
    __aeabi_ui2d                             0x08008b57   Thumb Code     0  dflt_clz.o(x$fpl$dfltu)
    _dfltu                                   0x08008b57   Thumb Code    38  dflt_clz.o(x$fpl$dfltu)
    __aeabi_dmul                             0x08008b7d   Thumb Code     0  dmul.o(x$fpl$dmul)
    _dmul                                    0x08008b7d   Thumb Code   332  dmul.o(x$fpl$dmul)
    __fpl_dnaninf                            0x08008cd1   Thumb Code   156  dnaninf.o(x$fpl$dnaninf)
    __fpl_dretinf                            0x08008d6d   Thumb Code    12  dretinf.o(x$fpl$dretinf)
    __aeabi_drsub                            0x08008d79   Thumb Code     0  daddsub_clz.o(x$fpl$drsb)
    _drsb                                    0x08008d79   Thumb Code    22  daddsub_clz.o(x$fpl$drsb)
    __aeabi_dsub                             0x08008d91   Thumb Code     0  daddsub_clz.o(x$fpl$dsub)
    _dsub                                    0x08008d91   Thumb Code   464  daddsub_clz.o(x$fpl$dsub)
    __aeabi_fadd                             0x08008f65   Thumb Code     0  faddsub_clz.o(x$fpl$fadd)
    _fadd                                    0x08008f65   Thumb Code   196  faddsub_clz.o(x$fpl$fadd)
    __fpl_fcmp_Inf                           0x08009029   Thumb Code    24  fcmpi.o(x$fpl$fcmpinf)
    __aeabi_cfcmpeq                          0x08009041   Thumb Code     0  feqf.o(x$fpl$feqf)
    _fcmpeq                                  0x08009041   Thumb Code   104  feqf.o(x$fpl$feqf)
    __aeabi_f2uiz                            0x080090a9   Thumb Code     0  ffixu.o(x$fpl$ffixu)
    _ffixu                                   0x080090a9   Thumb Code    62  ffixu.o(x$fpl$ffixu)
    __aeabi_i2f                              0x080090e9   Thumb Code     0  fflt_clz.o(x$fpl$fflt)
    _fflt                                    0x080090e9   Thumb Code    48  fflt_clz.o(x$fpl$fflt)
    __aeabi_ui2f                             0x08009119   Thumb Code     0  fflt_clz.o(x$fpl$ffltu)
    _ffltu                                   0x08009119   Thumb Code    38  fflt_clz.o(x$fpl$ffltu)
    __aeabi_fmul                             0x08009141   Thumb Code     0  fmul.o(x$fpl$fmul)
    _fmul                                    0x08009141   Thumb Code   258  fmul.o(x$fpl$fmul)
    __fpl_fnaninf                            0x08009243   Thumb Code   140  fnaninf.o(x$fpl$fnaninf)
    __fpl_fretinf                            0x080092cf   Thumb Code    10  fretinf.o(x$fpl$fretinf)
    __aeabi_fsub                             0x080092d9   Thumb Code     0  faddsub_clz.o(x$fpl$fsub)
    _fsub                                    0x080092d9   Thumb Code   234  faddsub_clz.o(x$fpl$fsub)
    _printf_fp_dec                           0x080093c3   Thumb Code     4  printf1.o(x$fpl$printf1)
    _printf_fp_hex                           0x080093c7   Thumb Code     4  printf2.o(x$fpl$printf2)
    OLED_F8x16                               0x080093ca   Data        1520  oled_data.o(.constdata)
    __I$use$fp                               0x080093ca   Number         0  usenofp.o(x$fpl$usenofp)
    OLED_F6x8                                0x080099ba   Data         570  oled_data.o(.constdata)
    OLED_CF16x16                             0x08009bf4   Data        4248  oled_data.o(.constdata)
    Diode                                    0x0800ac8c   Data          32  oled_data.o(.constdata)
    Battery                                  0x0800acac   Data          30  oled_data.o(.constdata)
    UnknowCat                                0x0800acca   Data         480  oled_data.o(.constdata)
    Button                                   0x0800aeaa   Data         120  oled_data.o(.constdata)
    Warning                                  0x0800af22   Data         288  oled_data.o(.constdata)
    Pass                                     0x0800b042   Data         288  oled_data.o(.constdata)
    GameMenu_Icon                            0x0800b167   Data         288  gamemenu.o(.constdata)
    GameMenu_Minesweeper_Icon                0x0800b287   Data         288  gamemenu_minesweeper.o(.constdata)
    Minesweeper_NumImage                     0x0800b3a7   Data          27  gamemenu_minesweeper.o(.constdata)
    Minesweeper_MineImage                    0x0800b3c2   Data           5  gamemenu_minesweeper.o(.constdata)
    GameMenu_Snake_Icon                      0x0800b3c7   Data         288  gamemenu_snake.o(.constdata)
    BodyImage                                0x0800b4e7   Data           5  gamemenu_snake.o(.constdata)
    HeadImage                                0x0800b4ec   Data          20  gamemenu_snake.o(.constdata)
    GameMenu_Tetris_Icon                     0x0800b500   Data         288  gamemenu_tetris.o(.constdata)
    Cube                                     0x0800b620   Data           5  gamemenu_tetris.o(.constdata)
    Data                                     0x0800b625   Data         112  gamemenu_tetris.o(.constdata)
    Tetris_ScoreImage                        0x0800b695   Data          96  gamemenu_tetris.o(.constdata)
    Tetris_NumImage                          0x0800b6f5   Data          50  gamemenu_tetris.o(.constdata)
    SettingMenu_Icon                         0x0800b727   Data         288  settingmenu.o(.constdata)
    TextMenu_Icon                            0x0800b847   Data         288  textmenu.o(.constdata)
    TextMenu_Create_Icon                     0x0800b967   Data         288  textmenu_create.o(.constdata)
    TextMenu_Delete_Icon                     0x0800ba87   Data         288  textmenu_delete.o(.constdata)
    TextMenu_Read_Icon                       0x0800bba7   Data         288  textmenu_read.o(.constdata)
    ClockMenu_Icon                           0x0800bcc7   Data         288  clockmenu.o(.constdata)
    ClockMenu_Alarm_Icon                     0x0800bde7   Data         288  clockmenu_alarm.o(.constdata)
    ClockMenu_Setting_Icon                   0x0800bf07   Data         288  clockmenu_setting.o(.constdata)
    ClockMenu_Time_Icon                      0x0800c027   Data         288  clockmenu_time.o(.constdata)
    _monlen                                  0x0800c189   Data          12  _monlen.o(.constdata)
    Region$$Table$$Base                      0x0800c2c8   Number         0  anon$$obj.o(Region$$Table)
    Region$$Table$$Limit                     0x0800c2e8   Number         0  anon$$obj.o(Region$$Table)
    __ctype                                  0x0800c311   Data           0  lc_ctype_c.o(locale$$data)
    MyRTC_Time                               0x20000000   Data          12  myrtc.o(.data)
    GameMenu_Name                            0x20000018   Data           4  gamemenu.o(.data)
    GameMenu_Minesweeper_Name                0x2000001c   Data           4  gamemenu_minesweeper.o(.data)
    GameMenu_Snake_Name                      0x20000024   Data           4  gamemenu_snake.o(.data)
    GameMenu_Tetris_Name                     0x2000002c   Data           4  gamemenu_tetris.o(.data)
    SettingMenu_Name                         0x20000040   Data           4  settingmenu.o(.data)
    TextMenu_Name                            0x20000044   Data           4  textmenu.o(.data)
    TextMenu_Create_Name                     0x20000048   Data           4  textmenu_create.o(.data)
    TextMenu_Delete_Name                     0x2000004c   Data           4  textmenu_delete.o(.data)
    TextMenu_Read_Name                       0x20000050   Data           4  textmenu_read.o(.data)
    ClockMenu_Name                           0x20000054   Data           4  clockmenu.o(.data)
    ClockMenu_Alarm_Name                     0x20000058   Data           4  clockmenu_alarm.o(.data)
    ClockMenu_Setting_Name                   0x20000060   Data           4  clockmenu_setting.o(.data)
    ClockMenu_Time_Name                      0x20000068   Data           4  clockmenu_time.o(.data)
    Store_Data                               0x2000006c   Data        1024  store.o(.bss)
    OLED_DisplayBuf                          0x2000046c   Data        1024  oled.o(.bss)
    GameMenu                                 0x20000968   Data          28  gamemenu.o(.bss)
    GameMenu_Minesweeper                     0x20000984   Data          28  gamemenu_minesweeper.o(.bss)
    GameMenu_Snake                           0x20000aa8   Data          28  gamemenu_snake.o(.bss)
    GameMenu_Tetris                          0x200017b8   Data          28  gamemenu_tetris.o(.bss)
    SettingMenu                              0x20001808   Data          28  settingmenu.o(.bss)
    TextMenu                                 0x20001824   Data          28  textmenu.o(.bss)
    TextMenu_Create                          0x20001840   Data          28  textmenu_create.o(.bss)
    TextMenu_Delete                          0x2000185c   Data          28  textmenu_delete.o(.bss)
    TextMenu_Read                            0x20001878   Data          28  textmenu_read.o(.bss)
    ClockMenu                                0x20001894   Data          28  clockmenu.o(.bss)
    ClockMenu_Alarm                          0x200018b0   Data          28  clockmenu_alarm.o(.bss)
    ClockMenu_Setting                        0x200018dc   Data          28  clockmenu_setting.o(.bss)
    ClockMenu_Time                           0x20001908   Data          28  clockmenu_time.o(.bss)
    _random_number_data                      0x20001924   Data         228  rand.o(.bss)
    __libspace_start                         0x20001a34   Data          96  libspace.o(.bss)
    __temporary_stack_top$libspace           0x20001a94   Data           0  libspace.o(.bss)



==============================================================================

Memory Map of the image

  Image Entry point : 0x080000ed

  Load Region LR_IROM1 (Base: 0x08000000, Size: 0x0000c480, Max: 0x00010000, ABSOLUTE)

    Execution Region ER_IROM1 (Exec base: 0x08000000, Load base: 0x08000000, Size: 0x0000c414, Max: 0x00010000, ABSOLUTE)

    Exec Addr    Load Addr    Size         Type   Attr      Idx    E Section Name        Object

    0x08000000   0x08000000   0x000000ec   Data   RO            3    RESET               startup_stm32f10x_md.o
    0x080000ec   0x080000ec   0x00000008   Code   RO         4900  * !!!main             c_w.l(__main.o)
    0x080000f4   0x080000f4   0x00000034   Code   RO         5342    !!!scatter          c_w.l(__scatter.o)
    0x08000128   0x08000128   0x0000001a   Code   RO         5344    !!handler_copy      c_w.l(__scatter_copy.o)
    0x08000142   0x08000142   0x00000002   PAD
    0x08000144   0x08000144   0x0000001c   Code   RO         5346    !!handler_zi        c_w.l(__scatter_zi.o)
    0x08000160   0x08000160   0x00000000   Code   RO         5050    .ARM.Collect$$_printf_percent$$00000000  c_w.l(_printf_percent.o)
    0x08000160   0x08000160   0x00000006   Code   RO         5039    .ARM.Collect$$_printf_percent$$00000001  c_w.l(_printf_n.o)
    0x08000166   0x08000166   0x00000006   Code   RO         5041    .ARM.Collect$$_printf_percent$$00000002  c_w.l(_printf_p.o)
    0x0800016c   0x0800016c   0x00000006   Code   RO         5046    .ARM.Collect$$_printf_percent$$00000003  c_w.l(_printf_f.o)
    0x08000172   0x08000172   0x00000006   Code   RO         5047    .ARM.Collect$$_printf_percent$$00000004  c_w.l(_printf_e.o)
    0x08000178   0x08000178   0x00000006   Code   RO         5048    .ARM.Collect$$_printf_percent$$00000005  c_w.l(_printf_g.o)
    0x0800017e   0x0800017e   0x00000006   Code   RO         5049    .ARM.Collect$$_printf_percent$$00000006  c_w.l(_printf_a.o)
    0x08000184   0x08000184   0x0000000a   Code   RO         5054    .ARM.Collect$$_printf_percent$$00000007  c_w.l(_printf_ll.o)
    0x0800018e   0x0800018e   0x00000006   Code   RO         5043    .ARM.Collect$$_printf_percent$$00000008  c_w.l(_printf_i.o)
    0x08000194   0x08000194   0x00000006   Code   RO         5044    .ARM.Collect$$_printf_percent$$00000009  c_w.l(_printf_d.o)
    0x0800019a   0x0800019a   0x00000006   Code   RO         5045    .ARM.Collect$$_printf_percent$$0000000A  c_w.l(_printf_u.o)
    0x080001a0   0x080001a0   0x00000006   Code   RO         5042    .ARM.Collect$$_printf_percent$$0000000B  c_w.l(_printf_o.o)
    0x080001a6   0x080001a6   0x00000006   Code   RO         5040    .ARM.Collect$$_printf_percent$$0000000C  c_w.l(_printf_x.o)
    0x080001ac   0x080001ac   0x00000006   Code   RO         5051    .ARM.Collect$$_printf_percent$$0000000D  c_w.l(_printf_lli.o)
    0x080001b2   0x080001b2   0x00000006   Code   RO         5052    .ARM.Collect$$_printf_percent$$0000000E  c_w.l(_printf_lld.o)
    0x080001b8   0x080001b8   0x00000006   Code   RO         5053    .ARM.Collect$$_printf_percent$$0000000F  c_w.l(_printf_llu.o)
    0x080001be   0x080001be   0x00000006   Code   RO         5058    .ARM.Collect$$_printf_percent$$00000010  c_w.l(_printf_llo.o)
    0x080001c4   0x080001c4   0x00000006   Code   RO         5059    .ARM.Collect$$_printf_percent$$00000011  c_w.l(_printf_llx.o)
    0x080001ca   0x080001ca   0x0000000a   Code   RO         5055    .ARM.Collect$$_printf_percent$$00000012  c_w.l(_printf_l.o)
    0x080001d4   0x080001d4   0x00000006   Code   RO         5037    .ARM.Collect$$_printf_percent$$00000013  c_w.l(_printf_c.o)
    0x080001da   0x080001da   0x00000006   Code   RO         5038    .ARM.Collect$$_printf_percent$$00000014  c_w.l(_printf_s.o)
    0x080001e0   0x080001e0   0x00000006   Code   RO         5056    .ARM.Collect$$_printf_percent$$00000015  c_w.l(_printf_lc.o)
    0x080001e6   0x080001e6   0x00000006   Code   RO         5057    .ARM.Collect$$_printf_percent$$00000016  c_w.l(_printf_ls.o)
    0x080001ec   0x080001ec   0x00000004   Code   RO         5191    .ARM.Collect$$_printf_percent$$00000017  c_w.l(_printf_percent_end.o)
    0x080001f0   0x080001f0   0x00000002   Code   RO         5257    .ARM.Collect$$libinit$$00000000  c_w.l(libinit.o)
    0x080001f2   0x080001f2   0x00000000   Code   RO         5064    .ARM.Collect$$libinit$$00000002  c_w.l(libinit2.o)
    0x080001f2   0x080001f2   0x00000000   Code   RO         5066    .ARM.Collect$$libinit$$00000004  c_w.l(libinit2.o)
    0x080001f2   0x080001f2   0x00000000   Code   RO         5069    .ARM.Collect$$libinit$$0000000A  c_w.l(libinit2.o)
    0x080001f2   0x080001f2   0x00000000   Code   RO         5071    .ARM.Collect$$libinit$$0000000C  c_w.l(libinit2.o)
    0x080001f2   0x080001f2   0x00000004   Code   RO         5072    .ARM.Collect$$libinit$$0000000D  c_w.l(libinit2.o)
    0x080001f6   0x080001f6   0x00000000   Code   RO         5073    .ARM.Collect$$libinit$$0000000E  c_w.l(libinit2.o)
    0x080001f6   0x080001f6   0x00000006   Code   RO         5074    .ARM.Collect$$libinit$$0000000F  c_w.l(libinit2.o)
    0x080001fc   0x080001fc   0x00000000   Code   RO         5076    .ARM.Collect$$libinit$$00000011  c_w.l(libinit2.o)
    0x080001fc   0x080001fc   0x0000000c   Code   RO         5077    .ARM.Collect$$libinit$$00000012  c_w.l(libinit2.o)
    0x08000208   0x08000208   0x00000000   Code   RO         5078    .ARM.Collect$$libinit$$00000013  c_w.l(libinit2.o)
    0x08000208   0x08000208   0x00000000   Code   RO         5080    .ARM.Collect$$libinit$$00000015  c_w.l(libinit2.o)
    0x08000208   0x08000208   0x0000000a   Code   RO         5081    .ARM.Collect$$libinit$$00000016  c_w.l(libinit2.o)
    0x08000212   0x08000212   0x00000000   Code   RO         5082    .ARM.Collect$$libinit$$00000017  c_w.l(libinit2.o)
    0x08000212   0x08000212   0x00000000   Code   RO         5084    .ARM.Collect$$libinit$$00000019  c_w.l(libinit2.o)
    0x08000212   0x08000212   0x00000000   Code   RO         5086    .ARM.Collect$$libinit$$0000001B  c_w.l(libinit2.o)
    0x08000212   0x08000212   0x00000000   Code   RO         5088    .ARM.Collect$$libinit$$0000001D  c_w.l(libinit2.o)
    0x08000212   0x08000212   0x00000000   Code   RO         5090    .ARM.Collect$$libinit$$0000001F  c_w.l(libinit2.o)
    0x08000212   0x08000212   0x00000000   Code   RO         5092    .ARM.Collect$$libinit$$00000021  c_w.l(libinit2.o)
    0x08000212   0x08000212   0x00000000   Code   RO         5094    .ARM.Collect$$libinit$$00000023  c_w.l(libinit2.o)
    0x08000212   0x08000212   0x00000000   Code   RO         5096    .ARM.Collect$$libinit$$00000025  c_w.l(libinit2.o)
    0x08000212   0x08000212   0x00000000   Code   RO         5100    .ARM.Collect$$libinit$$0000002C  c_w.l(libinit2.o)
    0x08000212   0x08000212   0x00000000   Code   RO         5102    .ARM.Collect$$libinit$$0000002E  c_w.l(libinit2.o)
    0x08000212   0x08000212   0x00000000   Code   RO         5104    .ARM.Collect$$libinit$$00000030  c_w.l(libinit2.o)
    0x08000212   0x08000212   0x00000000   Code   RO         5106    .ARM.Collect$$libinit$$00000032  c_w.l(libinit2.o)
    0x08000212   0x08000212   0x00000002   Code   RO         5107    .ARM.Collect$$libinit$$00000033  c_w.l(libinit2.o)
    0x08000214   0x08000214   0x00000002   Code   RO         5303    .ARM.Collect$$libshutdown$$00000000  c_w.l(libshutdown.o)
    0x08000216   0x08000216   0x00000000   Code   RO         5309    .ARM.Collect$$libshutdown$$00000002  c_w.l(libshutdown2.o)
    0x08000216   0x08000216   0x00000000   Code   RO         5311    .ARM.Collect$$libshutdown$$00000004  c_w.l(libshutdown2.o)
    0x08000216   0x08000216   0x00000000   Code   RO         5314    .ARM.Collect$$libshutdown$$00000007  c_w.l(libshutdown2.o)
    0x08000216   0x08000216   0x00000000   Code   RO         5317    .ARM.Collect$$libshutdown$$0000000A  c_w.l(libshutdown2.o)
    0x08000216   0x08000216   0x00000000   Code   RO         5319    .ARM.Collect$$libshutdown$$0000000C  c_w.l(libshutdown2.o)
    0x08000216   0x08000216   0x00000000   Code   RO         5322    .ARM.Collect$$libshutdown$$0000000F  c_w.l(libshutdown2.o)
    0x08000216   0x08000216   0x00000002   Code   RO         5323    .ARM.Collect$$libshutdown$$00000010  c_w.l(libshutdown2.o)
    0x08000218   0x08000218   0x00000000   Code   RO         4966    .ARM.Collect$$rtentry$$00000000  c_w.l(__rtentry.o)
    0x08000218   0x08000218   0x00000000   Code   RO         5157    .ARM.Collect$$rtentry$$00000002  c_w.l(__rtentry2.o)
    0x08000218   0x08000218   0x00000006   Code   RO         5169    .ARM.Collect$$rtentry$$00000004  c_w.l(__rtentry4.o)
    0x0800021e   0x0800021e   0x00000000   Code   RO         5159    .ARM.Collect$$rtentry$$00000009  c_w.l(__rtentry2.o)
    0x0800021e   0x0800021e   0x00000004   Code   RO         5160    .ARM.Collect$$rtentry$$0000000A  c_w.l(__rtentry2.o)
    0x08000222   0x08000222   0x00000000   Code   RO         5162    .ARM.Collect$$rtentry$$0000000C  c_w.l(__rtentry2.o)
    0x08000222   0x08000222   0x00000008   Code   RO         5163    .ARM.Collect$$rtentry$$0000000D  c_w.l(__rtentry2.o)
    0x0800022a   0x0800022a   0x00000002   Code   RO         5264    .ARM.Collect$$rtexit$$00000000  c_w.l(rtexit.o)
    0x0800022c   0x0800022c   0x00000000   Code   RO         5281    .ARM.Collect$$rtexit$$00000002  c_w.l(rtexit2.o)
    0x0800022c   0x0800022c   0x00000004   Code   RO         5282    .ARM.Collect$$rtexit$$00000003  c_w.l(rtexit2.o)
    0x08000230   0x08000230   0x00000006   Code   RO         5283    .ARM.Collect$$rtexit$$00000004  c_w.l(rtexit2.o)
    0x08000236   0x08000236   0x00000002   PAD
    0x08000238   0x08000238   0x00000034   Code   RO         4880    .emb_text           c_w.l(rand.o)
    0x0800026c   0x0800026c   0x00000040   Code   RO            4    .text               startup_stm32f10x_md.o
    0x080002ac   0x080002ac   0x00000024   Code   RO         4878    .text               c_w.l(vsprintf.o)
    0x080002d0   0x080002d0   0x0000003c   Code   RO         4881    .text               c_w.l(rand.o)
    0x0800030c   0x0800030c   0x0000003e   Code   RO         4885    .text               c_w.l(strlen.o)
    0x0800034a   0x0800034a   0x00000064   Code   RO         4887    .text               c_w.l(rt_memcpy_w.o)
    0x080003ae   0x080003ae   0x0000004e   Code   RO         4889    .text               c_w.l(rt_memclr_w.o)
    0x080003fc   0x080003fc   0x00000080   Code   RO         4891    .text               c_w.l(strcmpv7m.o)
    0x0800047c   0x0800047c   0x0000000c   Code   RO         4893    .text               c_w.l(localtime.o)
    0x08000488   0x08000488   0x000001ac   Code   RO         4896    .text               c_w.l(mktime.o)
    0x08000634   0x08000634   0x00000006   Code   RO         4898    .text               c_w.l(heapauxi.o)
    0x0800063a   0x0800063a   0x0000004e   Code   RO         4971    .text               c_w.l(_printf_pad.o)
    0x08000688   0x08000688   0x00000024   Code   RO         4973    .text               c_w.l(_printf_truncate.o)
    0x080006ac   0x080006ac   0x00000052   Code   RO         4975    .text               c_w.l(_printf_str.o)
    0x080006fe   0x080006fe   0x00000002   PAD
    0x08000700   0x08000700   0x00000078   Code   RO         4977    .text               c_w.l(_printf_dec.o)
    0x08000778   0x08000778   0x00000028   Code   RO         4979    .text               c_w.l(_printf_charcount.o)
    0x080007a0   0x080007a0   0x00000030   Code   RO         4981    .text               c_w.l(_printf_char_common.o)
    0x080007d0   0x080007d0   0x0000000a   Code   RO         4983    .text               c_w.l(_sputc.o)
    0x080007da   0x080007da   0x00000002   PAD
    0x080007dc   0x080007dc   0x000000bc   Code   RO         4985    .text               c_w.l(_printf_wctomb.o)
    0x08000898   0x08000898   0x0000007c   Code   RO         4988    .text               c_w.l(_printf_longlong_dec.o)
    0x08000914   0x08000914   0x00000070   Code   RO         4994    .text               c_w.l(_printf_oct_int_ll.o)
    0x08000984   0x08000984   0x00000094   Code   RO         5014    .text               c_w.l(_printf_hex_int_ll_ptr.o)
    0x08000a18   0x08000a18   0x00000188   Code   RO         5034    .text               c_w.l(__printf_flags_ss_wp.o)
    0x08000ba0   0x08000ba0   0x000000b8   Code   RO         5061    .text               c_w.l(localtime_internal.o)
    0x08000c58   0x08000c58   0x0000008a   Code   RO         5176    .text               c_w.l(lludiv10.o)
    0x08000ce2   0x08000ce2   0x000000b2   Code   RO         5178    .text               c_w.l(_printf_intcommon.o)
    0x08000d94   0x08000d94   0x0000041e   Code   RO         5180    .text               c_w.l(_printf_fp_dec.o)
    0x080011b2   0x080011b2   0x00000002   PAD
    0x080011b4   0x080011b4   0x000002fc   Code   RO         5182    .text               c_w.l(_printf_fp_hex.o)
    0x080014b0   0x080014b0   0x0000002c   Code   RO         5187    .text               c_w.l(_printf_char.o)
    0x080014dc   0x080014dc   0x0000002c   Code   RO         5189    .text               c_w.l(_printf_wchar.o)
    0x08001508   0x08001508   0x00000040   Code   RO         5192    .text               c_w.l(_wcrtomb.o)
    0x08001548   0x08001548   0x00000008   Code   RO         5204    .text               c_w.l(libspace.o)
    0x08001550   0x08001550   0x0000004a   Code   RO         5207    .text               c_w.l(sys_stackheap_outer.o)
    0x0800159a   0x0800159a   0x00000002   PAD
    0x0800159c   0x0800159c   0x00000010   Code   RO         5209    .text               c_w.l(rt_ctype_table.o)
    0x080015ac   0x080015ac   0x00000008   Code   RO         5214    .text               c_w.l(rt_locale_intlibspace.o)
    0x080015b4   0x080015b4   0x00000080   Code   RO         5216    .text               c_w.l(_printf_fp_infnan.o)
    0x08001634   0x08001634   0x000000e4   Code   RO         5218    .text               c_w.l(bigflt0.o)
    0x08001718   0x08001718   0x00000012   Code   RO         5246    .text               c_w.l(exit.o)
    0x0800172a   0x0800172a   0x00000002   Code   RO         5277    .text               c_w.l(use_no_semi.o)
    0x0800172c   0x0800172c   0x00000000   Code   RO         5279    .text               c_w.l(indicate_semi.o)
    0x0800172c   0x0800172c   0x0000000c   Code   RO         5295    .text               c_w.l(sys_exit.o)
    0x08001738   0x08001738   0x0000003e   Code   RO         5221    CL$$btod_d2e        c_w.l(btod.o)
    0x08001776   0x08001776   0x00000046   Code   RO         5223    CL$$btod_d2e_denorm_low  c_w.l(btod.o)
    0x080017bc   0x080017bc   0x00000060   Code   RO         5222    CL$$btod_d2e_norm_op1  c_w.l(btod.o)
    0x0800181c   0x0800181c   0x00000338   Code   RO         5231    CL$$btod_div_common  c_w.l(btod.o)
    0x08001b54   0x08001b54   0x000000dc   Code   RO         5228    CL$$btod_e2e        c_w.l(btod.o)
    0x08001c30   0x08001c30   0x0000002a   Code   RO         5225    CL$$btod_ediv       c_w.l(btod.o)
    0x08001c5a   0x08001c5a   0x0000002a   Code   RO         5224    CL$$btod_emul       c_w.l(btod.o)
    0x08001c84   0x08001c84   0x00000244   Code   RO         5230    CL$$btod_mult_common  c_w.l(btod.o)
    0x08001ec8   0x08001ec8   0x0000001c   Code   RO          431    i.BKP_ReadBackupRegister  stm32f10x_bkp.o
    0x08001ee4   0x08001ee4   0x0000001c   Code   RO          435    i.BKP_WriteBackupRegister  stm32f10x_bkp.o
    0x08001f00   0x08001f00   0x00000004   Code   RO         4813    i.BusFault_Handler  stm32f10x_it.o
    0x08001f04   0x08001f04   0x000005a4   Code   RO         4677    i.ClockMenu_Alarm_Funsion  clockmenu_alarm.o
    0x080024a8   0x080024a8   0x00000068   Code   RO         4678    i.ClockMenu_Alarm_Init  clockmenu_alarm.o
    0x08002510   0x08002510   0x00000088   Code   RO         4679    i.ClockMenu_Alarm_View_MAIN  clockmenu_alarm.o
    0x08002598   0x08002598   0x00000074   Code   RO         4724    i.ClockMenu_Alarm_View_MAIN  clockmenu_setting.o
    0x0800260c   0x0800260c   0x000000fc   Code   RO         4680    i.ClockMenu_Alarm_View_SETTING  clockmenu_alarm.o
    0x08002708   0x08002708   0x000000fc   Code   RO         4725    i.ClockMenu_Alarm_View_SETTING  clockmenu_setting.o
    0x08002804   0x08002804   0x00000088   Code   RO         4681    i.ClockMenu_Alarm_View_SWITCH  clockmenu_alarm.o
    0x0800288c   0x0800288c   0x00000002   Code   RO         4638    i.ClockMenu_Funsion  clockmenu.o
    0x0800288e   0x0800288e   0x00000002   PAD
    0x08002890   0x08002890   0x0000005c   Code   RO         4639    i.ClockMenu_Init    clockmenu.o
    0x080028ec   0x080028ec   0x000004fc   Code   RO         4726    i.ClockMenu_Setting_Funsion  clockmenu_setting.o
    0x08002de8   0x08002de8   0x0000006c   Code   RO         4727    i.ClockMenu_Setting_Init  clockmenu_setting.o
    0x08002e54   0x08002e54   0x0000004c   Code   RO         4761    i.ClockMenu_Time_Funsion  clockmenu_time.o
    0x08002ea0   0x08002ea0   0x00000034   Code   RO         4762    i.ClockMenu_Time_Init  clockmenu_time.o
    0x08002ed4   0x08002ed4   0x00000110   Code   RO         4763    i.ClockMenu_Time_Loop  clockmenu_time.o
    0x08002fe4   0x08002fe4   0x00000002   Code   RO         4814    i.DebugMon_Handler  stm32f10x_it.o
    0x08002fe6   0x08002fe6   0x00000018   Code   RO         3196    i.Delay_ms          delay.o
    0x08002ffe   0x08002ffe   0x0000002e   Code   RO         3198    i.Delay_us          delay.o
    0x0800302c   0x0800302c   0x0000001c   Code   RO         3658    i.Encoder_GetCounter  encoder.o
    0x08003048   0x08003048   0x000000b8   Code   RO         3659    i.Encoder_Init      encoder.o
    0x08003100   0x08003100   0x000000d4   Code   RO         3660    i.Encoder_Loop      encoder.o
    0x080031d4   0x080031d4   0x0000004c   Code   RO         1046    i.FLASH_ErasePage   stm32f10x_flash.o
    0x08003220   0x08003220   0x00000034   Code   RO         1047    i.FLASH_GetBank1Status  stm32f10x_flash.o
    0x08003254   0x08003254   0x00000014   Code   RO         1056    i.FLASH_Lock        stm32f10x_flash.o
    0x08003268   0x08003268   0x00000040   Code   RO         1059    i.FLASH_ProgramHalfWord  stm32f10x_flash.o
    0x080032a8   0x080032a8   0x00000018   Code   RO         1064    i.FLASH_Unlock      stm32f10x_flash.o
    0x080032c0   0x080032c0   0x00000026   Code   RO         1068    i.FLASH_WaitForLastOperation  stm32f10x_flash.o
    0x080032e6   0x080032e6   0x00000116   Code   RO         1347    i.GPIO_Init         stm32f10x_gpio.o
    0x080033fc   0x080033fc   0x00000012   Code   RO         1351    i.GPIO_ReadInputDataBit  stm32f10x_gpio.o
    0x0800340e   0x0800340e   0x0000000a   Code   RO         1358    i.GPIO_WriteBit     stm32f10x_gpio.o
    0x08003418   0x08003418   0x000000f0   Code   RO         3833    i.GUI_Display       gui.o
    0x08003508   0x08003508   0x00000028   Code   RO         3834    i.GUI_Init          gui.o
    0x08003530   0x08003530   0x00000038   Code   RO         3835    i.GUI_ReceiveCommand  gui.o
    0x08003568   0x08003568   0x0000002c   Code   RO         3836    i.GUI_SetRelationship  gui.o
    0x08003594   0x08003594   0x00000008   Code   RO         3837    i.GUI_ToChild       gui.o
    0x0800359c   0x0800359c   0x00000008   Code   RO         3838    i.GUI_ToFather      gui.o
    0x080035a4   0x080035a4   0x00000008   Code   RO         3839    i.GUI_ToFunsion     gui.o
    0x080035ac   0x080035ac   0x000000c4   Code   RO         3840    i.GUI_ToLast        gui.o
    0x08003670   0x08003670   0x000000ca   Code   RO         3841    i.GUI_ToNext        gui.o
    0x0800373a   0x0800373a   0x00000002   Code   RO         4049    i.GameMenu_Funsion  gamemenu.o
    0x0800373c   0x0800373c   0x0000005c   Code   RO         4050    i.GameMenu_Init     gamemenu.o
    0x08003798   0x08003798   0x00000250   Code   RO         4088    i.GameMenu_Minesweeper_Funsion  gamemenu_minesweeper.o
    0x080039e8   0x080039e8   0x00000044   Code   RO         4089    i.GameMenu_Minesweeper_Init  gamemenu_minesweeper.o
    0x08003a2c   0x08003a2c   0x000000a4   Code   RO         4090    i.GameMenu_Minesweeper_View_HELP  gamemenu_minesweeper.o
    0x08003ad0   0x08003ad0   0x00000098   Code   RO         4091    i.GameMenu_Minesweeper_View_LEVEL  gamemenu_minesweeper.o
    0x08003b68   0x08003b68   0x00000098   Code   RO         4092    i.GameMenu_Minesweeper_View_MAIN  gamemenu_minesweeper.o
    0x08003c00   0x08003c00   0x00000054   Code   RO         4093    i.GameMenu_Minesweeper_View_PAUSE  gamemenu_minesweeper.o
    0x08003c54   0x08003c54   0x000000c0   Code   RO         4094    i.GameMenu_Minesweeper_View_RECORD  gamemenu_minesweeper.o
    0x08003d14   0x08003d14   0x000001d0   Code   RO         4228    i.GameMenu_Snake_Funsion  gamemenu_snake.o
    0x08003ee4   0x08003ee4   0x00000044   Code   RO         4229    i.GameMenu_Snake_Init  gamemenu_snake.o
    0x08003f28   0x08003f28   0x00000098   Code   RO         4230    i.GameMenu_Snake_View_HELP  gamemenu_snake.o
    0x08003fc0   0x08003fc0   0x00000098   Code   RO         4231    i.GameMenu_Snake_View_MAIN  gamemenu_snake.o
    0x08004058   0x08004058   0x00000054   Code   RO         4232    i.GameMenu_Snake_View_PAUSE  gamemenu_snake.o
    0x080040ac   0x080040ac   0x0000004c   Code   RO         4233    i.GameMenu_Snake_View_RECORD  gamemenu_snake.o
    0x080040f8   0x080040f8   0x000001ec   Code   RO         4314    i.GameMenu_Tetris_Funsion  gamemenu_tetris.o
    0x080042e4   0x080042e4   0x00000038   Code   RO         4315    i.GameMenu_Tetris_Init  gamemenu_tetris.o
    0x0800431c   0x0800431c   0x000000a4   Code   RO         4316    i.GameMenu_Tetris_View_HELP  gamemenu_tetris.o
    0x080043c0   0x080043c0   0x00000098   Code   RO         4317    i.GameMenu_Tetris_View_MAIN  gamemenu_tetris.o
    0x08004458   0x08004458   0x00000054   Code   RO         4318    i.GameMenu_Tetris_View_PAUSE  gamemenu_tetris.o
    0x080044ac   0x080044ac   0x0000004c   Code   RO         4319    i.GameMenu_Tetris_View_RECORD  gamemenu_tetris.o
    0x080044f8   0x080044f8   0x00000004   Code   RO         4815    i.HardFault_Handler  stm32f10x_it.o
    0x080044fc   0x080044fc   0x00000010   Code   RO         1665    i.IWDG_Enable       stm32f10x_iwdg.o
    0x0800450c   0x0800450c   0x00000038   Code   RO         4792    i.IWDG_Init         main.o
    0x08004544   0x08004544   0x00000010   Code   RO         1667    i.IWDG_ReloadCounter  stm32f10x_iwdg.o
    0x08004554   0x08004554   0x0000000c   Code   RO         1668    i.IWDG_SetPrescaler  stm32f10x_iwdg.o
    0x08004560   0x08004560   0x0000000c   Code   RO         1669    i.IWDG_SetReload    stm32f10x_iwdg.o
    0x0800456c   0x0800456c   0x0000000c   Code   RO         1670    i.IWDG_WriteAccessCmd  stm32f10x_iwdg.o
    0x08004578   0x08004578   0x00000040   Code   RO         3352    i.Key_GetState      key.o
    0x080045b8   0x080045b8   0x0000005c   Code   RO         3353    i.Key_Init          key.o
    0x08004614   0x08004614   0x00000144   Code   RO         3354    i.Key_Loop          key.o
    0x08004758   0x08004758   0x00000018   Code   RO         3763    i.MSG_DefaultProc   msg.o
    0x08004770   0x08004770   0x00000044   Code   RO         3791    i.MSG_GetMessage    message.o
    0x080047b4   0x080047b4   0x00000018   Code   RO         3792    i.MSG_Init          message.o
    0x080047cc   0x080047cc   0x00000006   Code   RO         3793    i.MSG_MQOverflow    message.o
    0x080047d2   0x080047d2   0x00000002   PAD
    0x080047d4   0x080047d4   0x00000044   Code   RO         3794    i.MSG_SendInitMessage  message.o
    0x08004818   0x08004818   0x00000114   Code   RO         3795    i.MSG_SendMessage   message.o
    0x0800492c   0x0800492c   0x00000018   Code   RO         3796    i.MSG_isEmpty       message.o
    0x08004944   0x08004944   0x00000004   Code   RO         4816    i.MemManage_Handler  stm32f10x_it.o
    0x08004948   0x08004948   0x0000000c   Code   RO         3914    i.Menu_GetFather    menu.o
    0x08004954   0x08004954   0x0000000c   Code   RO         3915    i.Menu_GetIcon      menu.o
    0x08004960   0x08004960   0x0000000c   Code   RO         3916    i.Menu_GetLast      menu.o
    0x0800496c   0x0800496c   0x0000000c   Code   RO         3917    i.Menu_GetName      menu.o
    0x08004978   0x08004978   0x0000000c   Code   RO         3918    i.Menu_GetNext      menu.o
    0x08004984   0x08004984   0x00000012   Code   RO         3919    i.Menu_Init         menu.o
    0x08004996   0x08004996   0x0000003a   Code   RO         3920    i.Menu_SetChild     menu.o
    0x080049d0   0x080049d0   0x0000000c   Code   RO         3921    i.Menu_SetCurrent   menu.o
    0x080049dc   0x080049dc   0x00000028   Code   RO         3922    i.Menu_SetFather    menu.o
    0x08004a04   0x08004a04   0x00000006   Code   RO         3927    i.Menu_SetNext      menu.o
    0x08004a0a   0x08004a0a   0x00000002   PAD
    0x08004a0c   0x08004a0c   0x00000020   Code   RO         3928    i.Menu_ToChild      menu.o
    0x08004a2c   0x08004a2c   0x00000030   Code   RO         3929    i.Menu_ToFather     menu.o
    0x08004a5c   0x08004a5c   0x00000020   Code   RO         3930    i.Menu_ToFunsion    menu.o
    0x08004a7c   0x08004a7c   0x00000020   Code   RO         3931    i.Menu_ToLast       menu.o
    0x08004a9c   0x08004a9c   0x00000020   Code   RO         3932    i.Menu_ToNext       menu.o
    0x08004abc   0x08004abc   0x00000078   Code   RO         4095    i.Minesweeper_ClearArea  gamemenu_minesweeper.o
    0x08004b34   0x08004b34   0x0000004c   Code   RO         4096    i.Minesweeper_CreateMine  gamemenu_minesweeper.o
    0x08004b80   0x08004b80   0x000000f8   Code   RO         4097    i.Minesweeper_Display  gamemenu_minesweeper.o
    0x08004c78   0x08004c78   0x0000002c   Code   RO         4098    i.Minesweeper_Down  gamemenu_minesweeper.o
    0x08004ca4   0x08004ca4   0x00000094   Code   RO         4099    i.Minesweeper_Init  gamemenu_minesweeper.o
    0x08004d38   0x08004d38   0x0000002c   Code   RO         4100    i.Minesweeper_Left  gamemenu_minesweeper.o
    0x08004d64   0x08004d64   0x00000044   Code   RO         4101    i.Minesweeper_Loop  gamemenu_minesweeper.o
    0x08004da8   0x08004da8   0x0000005c   Code   RO         4102    i.Minesweeper_NearbyMineNum  gamemenu_minesweeper.o
    0x08004e04   0x08004e04   0x0000002c   Code   RO         4103    i.Minesweeper_Right  gamemenu_minesweeper.o
    0x08004e30   0x08004e30   0x00000078   Code   RO         4104    i.Minesweeper_Save  gamemenu_minesweeper.o
    0x08004ea8   0x08004ea8   0x0000003c   Code   RO         4105    i.Minesweeper_ShowAllMine  gamemenu_minesweeper.o
    0x08004ee4   0x08004ee4   0x00000088   Code   RO         4106    i.Minesweeper_Sweep  gamemenu_minesweeper.o
    0x08004f6c   0x08004f6c   0x0000002c   Code   RO         4107    i.Minesweeper_Up    gamemenu_minesweeper.o
    0x08004f98   0x08004f98   0x00000040   Code   RO         4108    i.Minesweeper_isWin  gamemenu_minesweeper.o
    0x08004fd8   0x08004fd8   0x00000014   Code   RO         3272    i.MyFLASH_ErasePage  myflash.o
    0x08004fec   0x08004fec   0x00000018   Code   RO         3273    i.MyFLASH_ProgramHalfWord  myflash.o
    0x08005004   0x08005004   0x00000006   Code   RO         3276    i.MyFLASH_ReadHalfWord  myflash.o
    0x0800500a   0x0800500a   0x00000072   Code   RO         3220    i.MyRTC_Init        myrtc.o
    0x0800507c   0x0800507c   0x00000044   Code   RO         3221    i.MyRTC_ReadTime    myrtc.o
    0x080050c0   0x080050c0   0x0000003a   Code   RO         3222    i.MyRTC_SetAlarm    myrtc.o
    0x080050fa   0x080050fa   0x00000002   PAD
    0x080050fc   0x080050fc   0x00000048   Code   RO         3223    i.MyRTC_SetTime     myrtc.o
    0x08005144   0x08005144   0x00000034   Code   RO         3224    i.MyRTC_TurnOffAlarm  myrtc.o
    0x08005178   0x08005178   0x00000034   Code   RO         3225    i.MyRTC_TurnOnAlarm  myrtc.o
    0x080051ac   0x080051ac   0x00000002   Code   RO         4817    i.NMI_Handler       stm32f10x_it.o
    0x080051ae   0x080051ae   0x00000002   PAD
    0x080051b0   0x080051b0   0x00000070   Code   RO          137    i.NVIC_Init         misc.o
    0x08005220   0x08005220   0x00000014   Code   RO          138    i.NVIC_PriorityGroupConfig  misc.o
    0x08005234   0x08005234   0x00000028   Code   RO         3388    i.OLED_Clear        oled.o
    0x0800525c   0x0800525c   0x000000c0   Code   RO         3389    i.OLED_ClearArea    oled.o
    0x0800531c   0x0800531c   0x00000034   Code   RO         3390    i.OLED_CopyDisplayBuf  oled.o
    0x08005350   0x08005350   0x00000176   Code   RO         3394    i.OLED_DrawLine     oled.o
    0x080054c6   0x080054c6   0x00000002   PAD
    0x080054c8   0x080054c8   0x00000050   Code   RO         3395    i.OLED_DrawPoint    oled.o
    0x08005518   0x08005518   0x0000008e   Code   RO         3396    i.OLED_DrawRectangle  oled.o
    0x080055a6   0x080055a6   0x00000002   PAD
    0x080055a8   0x080055a8   0x00000060   Code   RO         3398    i.OLED_GPIO_Init    oled.o
    0x08005608   0x08005608   0x0000003e   Code   RO         3400    i.OLED_I2C_SendByte  oled.o
    0x08005646   0x08005646   0x0000001c   Code   RO         3401    i.OLED_I2C_Start    oled.o
    0x08005662   0x08005662   0x00000016   Code   RO         3402    i.OLED_I2C_Stop     oled.o
    0x08005678   0x08005678   0x0000009a   Code   RO         3403    i.OLED_Init         oled.o
    0x08005712   0x08005712   0x00000032   Code   RO         3406    i.OLED_Printf       oled.o
    0x08005744   0x08005744   0x000000c0   Code   RO         3408    i.OLED_ReverseArea  oled.o
    0x08005804   0x08005804   0x00000022   Code   RO         3409    i.OLED_SetCursor    oled.o
    0x08005826   0x08005826   0x00000002   PAD
    0x08005828   0x08005828   0x00000054   Code   RO         3411    i.OLED_ShowChar     oled.o
    0x0800587c   0x0800587c   0x00000098   Code   RO         3412    i.OLED_ShowChinese  oled.o
    0x08005914   0x08005914   0x00000148   Code   RO         3415    i.OLED_ShowImage    oled.o
    0x08005a5c   0x08005a5c   0x0000002e   Code   RO         3418    i.OLED_ShowString   oled.o
    0x08005a8a   0x08005a8a   0x00000002   PAD
    0x08005a8c   0x08005a8c   0x00000028   Code   RO         3419    i.OLED_Update       oled.o
    0x08005ab4   0x08005ab4   0x0000007c   Code   RO         3420    i.OLED_UpdateArea   oled.o
    0x08005b30   0x08005b30   0x00000018   Code   RO         3421    i.OLED_W_SCL        oled.o
    0x08005b48   0x08005b48   0x00000018   Code   RO         3422    i.OLED_W_SDA        oled.o
    0x08005b60   0x08005b60   0x00000020   Code   RO         3423    i.OLED_WriteCommand  oled.o
    0x08005b80   0x08005b80   0x0000002e   Code   RO         3424    i.OLED_WriteData    oled.o
    0x08005bae   0x08005bae   0x00000002   PAD
    0x08005bb0   0x08005bb0   0x0000000c   Code   RO         1710    i.PWR_BackupAccessCmd  stm32f10x_pwr.o
    0x08005bbc   0x08005bbc   0x00000002   Code   RO         4818    i.PendSV_Handler    stm32f10x_it.o
    0x08005bbe   0x08005bbe   0x00000002   PAD
    0x08005bc0   0x08005bc0   0x00000020   Code   RO         1775    i.RCC_APB1PeriphClockCmd  stm32f10x_rcc.o
    0x08005be0   0x08005be0   0x00000020   Code   RO         1777    i.RCC_APB2PeriphClockCmd  stm32f10x_rcc.o
    0x08005c00   0x08005c00   0x00000014   Code   RO         1781    i.RCC_ClearFlag     stm32f10x_rcc.o
    0x08005c14   0x08005c14   0x0000003c   Code   RO         1786    i.RCC_GetFlagStatus  stm32f10x_rcc.o
    0x08005c50   0x08005c50   0x00000034   Code   RO         1793    i.RCC_LSEConfig     stm32f10x_rcc.o
    0x08005c84   0x08005c84   0x0000000c   Code   RO         1800    i.RCC_RTCCLKCmd     stm32f10x_rcc.o
    0x08005c90   0x08005c90   0x00000010   Code   RO         1801    i.RCC_RTCCLKConfig  stm32f10x_rcc.o
    0x08005ca0   0x08005ca0   0x00000010   Code   RO         1977    i.RTC_ClearITPendingBit  stm32f10x_rtc.o
    0x08005cb0   0x08005cb0   0x00000014   Code   RO         1978    i.RTC_EnterConfigMode  stm32f10x_rtc.o
    0x08005cc4   0x08005cc4   0x00000014   Code   RO         1979    i.RTC_ExitConfigMode  stm32f10x_rtc.o
    0x08005cd8   0x08005cd8   0x00000014   Code   RO         1980    i.RTC_GetCounter    stm32f10x_rtc.o
    0x08005cec   0x08005cec   0x00000024   Code   RO         1983    i.RTC_GetITStatus   stm32f10x_rtc.o
    0x08005d10   0x08005d10   0x00000130   Code   RO         4682    i.RTC_IRQHandler    clockmenu_alarm.o
    0x08005e40   0x08005e40   0x00000020   Code   RO         1984    i.RTC_ITConfig      stm32f10x_rtc.o
    0x08005e60   0x08005e60   0x0000001c   Code   RO         1985    i.RTC_SetAlarm      stm32f10x_rtc.o
    0x08005e7c   0x08005e7c   0x0000001c   Code   RO         1986    i.RTC_SetCounter    stm32f10x_rtc.o
    0x08005e98   0x08005e98   0x00000020   Code   RO         1987    i.RTC_SetPrescaler  stm32f10x_rtc.o
    0x08005eb8   0x08005eb8   0x00000014   Code   RO         1988    i.RTC_WaitForLastTask  stm32f10x_rtc.o
    0x08005ecc   0x08005ecc   0x00000024   Code   RO         1989    i.RTC_WaitForSynchro  stm32f10x_rtc.o
    0x08005ef0   0x08005ef0   0x00000002   Code   RO         4819    i.SVC_Handler       stm32f10x_it.o
    0x08005ef2   0x08005ef2   0x00000008   Code   RO           10    i.SetSysClock       system_stm32f10x.o
    0x08005efa   0x08005efa   0x00000002   PAD
    0x08005efc   0x08005efc   0x000000e0   Code   RO           11    i.SetSysClockTo72   system_stm32f10x.o
    0x08005fdc   0x08005fdc   0x00000002   Code   RO         4440    i.SettingMenu_Funsion  settingmenu.o
    0x08005fde   0x08005fde   0x00000002   PAD
    0x08005fe0   0x08005fe0   0x0000002c   Code   RO         4441    i.SettingMenu_Init  settingmenu.o
    0x0800600c   0x0800600c   0x00000088   Code   RO         4234    i.Snake_CreateFood  gamemenu_snake.o
    0x08006094   0x08006094   0x00000144   Code   RO         4235    i.Snake_Display     gamemenu_snake.o
    0x080061d8   0x080061d8   0x000000c0   Code   RO         4236    i.Snake_Init        gamemenu_snake.o
    0x08006298   0x08006298   0x000000a0   Code   RO         4237    i.Snake_Left        gamemenu_snake.o
    0x08006338   0x08006338   0x0000030c   Code   RO         4238    i.Snake_Loop        gamemenu_snake.o
    0x08006644   0x08006644   0x000000a0   Code   RO         4239    i.Snake_Right       gamemenu_snake.o
    0x080066e4   0x080066e4   0x00000060   Code   RO         4240    i.Snake_Save        gamemenu_snake.o
    0x08006744   0x08006744   0x00000064   Code   RO         3323    i.Store_Init        store.o
    0x080067a8   0x080067a8   0x00000034   Code   RO         3324    i.Store_Save        store.o
    0x080067dc   0x080067dc   0x00000002   Code   RO         4820    i.SysTick_Handler   stm32f10x_it.o
    0x080067de   0x080067de   0x00000002   PAD
    0x080067e0   0x080067e0   0x00000060   Code   RO           13    i.SystemInit        system_stm32f10x.o
    0x08006840   0x08006840   0x00000080   Code   RO         2405    i.TI1_Config        stm32f10x_tim.o
    0x080068c0   0x080068c0   0x00000098   Code   RO         2406    i.TI2_Config        stm32f10x_tim.o
    0x08006958   0x08006958   0x00000090   Code   RO         2407    i.TI3_Config        stm32f10x_tim.o
    0x080069e8   0x080069e8   0x00000098   Code   RO         2408    i.TI4_Config        stm32f10x_tim.o
    0x08006a80   0x08006a80   0x000000a8   Code   RO         3685    i.TIM2_IRQHandler   timer.o
    0x08006b28   0x08006b28   0x00000006   Code   RO         2415    i.TIM_ClearFlag     stm32f10x_tim.o
    0x08006b2e   0x08006b2e   0x00000006   Code   RO         2416    i.TIM_ClearITPendingBit  stm32f10x_tim.o
    0x08006b34   0x08006b34   0x00000018   Code   RO         2421    i.TIM_Cmd           stm32f10x_tim.o
    0x08006b4c   0x08006b4c   0x00000042   Code   RO         2430    i.TIM_EncoderInterfaceConfig  stm32f10x_tim.o
    0x08006b8e   0x08006b8e   0x00000006   Code   RO         2440    i.TIM_GetCounter    stm32f10x_tim.o
    0x08006b94   0x08006b94   0x00000022   Code   RO         2442    i.TIM_GetITStatus   stm32f10x_tim.o
    0x08006bb6   0x08006bb6   0x00000002   PAD
    0x08006bb8   0x08006bb8   0x000000ac   Code   RO         2444    i.TIM_ICInit        stm32f10x_tim.o
    0x08006c64   0x08006c64   0x00000012   Code   RO         2445    i.TIM_ICStructInit  stm32f10x_tim.o
    0x08006c76   0x08006c76   0x00000012   Code   RO         2446    i.TIM_ITConfig      stm32f10x_tim.o
    0x08006c88   0x08006c88   0x0000000c   Code   RO         2448    i.TIM_InternalClockConfig  stm32f10x_tim.o
    0x08006c94   0x08006c94   0x00000004   Code   RO         2486    i.TIM_SetCounter    stm32f10x_tim.o
    0x08006c98   0x08006c98   0x00000012   Code   RO         2487    i.TIM_SetIC1Prescaler  stm32f10x_tim.o
    0x08006caa   0x08006caa   0x0000001a   Code   RO         2488    i.TIM_SetIC2Prescaler  stm32f10x_tim.o
    0x08006cc4   0x08006cc4   0x00000012   Code   RO         2489    i.TIM_SetIC3Prescaler  stm32f10x_tim.o
    0x08006cd6   0x08006cd6   0x0000001a   Code   RO         2490    i.TIM_SetIC4Prescaler  stm32f10x_tim.o
    0x08006cf0   0x08006cf0   0x000000a4   Code   RO         2492    i.TIM_TimeBaseInit  stm32f10x_tim.o
    0x08006d94   0x08006d94   0x00000060   Code   RO         4320    i.Tetris_Create     gamemenu_tetris.o
    0x08006df4   0x08006df4   0x000003e4   Code   RO         4321    i.Tetris_Display    gamemenu_tetris.o
    0x080071d8   0x080071d8   0x00000050   Code   RO         4322    i.Tetris_DistanceToBottom  gamemenu_tetris.o
    0x08007228   0x08007228   0x00000054   Code   RO         4323    i.Tetris_Fall       gamemenu_tetris.o
    0x0800727c   0x0800727c   0x0000008c   Code   RO         4324    i.Tetris_Full       gamemenu_tetris.o
    0x08007308   0x08007308   0x00000028   Code   RO         4325    i.Tetris_GameOver   gamemenu_tetris.o
    0x08007330   0x08007330   0x00000018   Code   RO         4326    i.Tetris_Hitbottom  gamemenu_tetris.o
    0x08007348   0x08007348   0x00000044   Code   RO         4327    i.Tetris_Init       gamemenu_tetris.o
    0x0800738c   0x0800738c   0x00000050   Code   RO         4328    i.Tetris_Left       gamemenu_tetris.o
    0x080073dc   0x080073dc   0x000000b0   Code   RO         4329    i.Tetris_Loop       gamemenu_tetris.o
    0x0800748c   0x0800748c   0x00000038   Code   RO         4330    i.Tetris_Pow        gamemenu_tetris.o
    0x080074c4   0x080074c4   0x00000050   Code   RO         4331    i.Tetris_Right      gamemenu_tetris.o
    0x08007514   0x08007514   0x00000094   Code   RO         4332    i.Tetris_RtLeft     gamemenu_tetris.o
    0x080075a8   0x080075a8   0x00000094   Code   RO         4333    i.Tetris_RtRight    gamemenu_tetris.o
    0x0800763c   0x0800763c   0x0000005c   Code   RO         4334    i.Tetris_Save       gamemenu_tetris.o
    0x08007698   0x08007698   0x00000050   Code   RO         4335    i.Tetris_Stack      gamemenu_tetris.o
    0x080076e8   0x080076e8   0x000001b8   Code   RO         4505    i.TextMenu_Create_Funsion  textmenu_create.o
    0x080078a0   0x080078a0   0x00000038   Code   RO         4506    i.TextMenu_Create_Init  textmenu_create.o
    0x080078d8   0x080078d8   0x00000128   Code   RO         4507    i.TextMenu_Create_View_Status0  textmenu_create.o
    0x08007a00   0x08007a00   0x00000104   Code   RO         4508    i.TextMenu_Create_View_Status1  textmenu_create.o
    0x08007b04   0x08007b04   0x00000078   Code   RO         4509    i.TextMenu_Create_View_Status2  textmenu_create.o
    0x08007b7c   0x08007b7c   0x00000044   Code   RO         4510    i.TextMenu_Create_View_Warning  textmenu_create.o
    0x08007bc0   0x08007bc0   0x000000e4   Code   RO         4556    i.TextMenu_Delete_DeleteText  textmenu_delete.o
    0x08007ca4   0x08007ca4   0x00000094   Code   RO         4557    i.TextMenu_Delete_Funsion  textmenu_delete.o
    0x08007d38   0x08007d38   0x00000038   Code   RO         4558    i.TextMenu_Delete_Init  textmenu_delete.o
    0x08007d70   0x08007d70   0x000000ac   Code   RO         4559    i.TextMenu_Delete_View_Status0  textmenu_delete.o
    0x08007e1c   0x08007e1c   0x00000048   Code   RO         4560    i.TextMenu_Delete_View_Warning  textmenu_delete.o
    0x08007e64   0x08007e64   0x00000002   Code   RO         4467    i.TextMenu_Funsion  textmenu.o
    0x08007e66   0x08007e66   0x00000002   PAD
    0x08007e68   0x08007e68   0x0000005c   Code   RO         4468    i.TextMenu_Init     textmenu.o
    0x08007ec4   0x08007ec4   0x00000100   Code   RO         4597    i.TextMenu_Read_DisplayText  textmenu_read.o
    0x08007fc4   0x08007fc4   0x000000c0   Code   RO         4598    i.TextMenu_Read_Funsion  textmenu_read.o
    0x08008084   0x08008084   0x00000038   Code   RO         4599    i.TextMenu_Read_Init  textmenu_read.o
    0x080080bc   0x080080bc   0x000000ac   Code   RO         4600    i.TextMenu_Read_View_Status0  textmenu_read.o
    0x08008168   0x08008168   0x00000048   Code   RO         4601    i.TextMenu_Read_View_Warning  textmenu_read.o
    0x080081b0   0x080081b0   0x00000068   Code   RO         4511    i.TextMenu_Save     textmenu_create.o
    0x08008218   0x08008218   0x000000a0   Code   RO         3686    i.Timer_AddFunction  timer.o
    0x080082b8   0x080082b8   0x00000084   Code   RO         3687    i.Timer_DeleteFunction  timer.o
    0x0800833c   0x0800833c   0x000000d8   Code   RO         3688    i.Timer_Init        timer.o
    0x08008414   0x08008414   0x00000040   Code   RO         3689    i.Timer_SetCount    timer.o
    0x08008454   0x08008454   0x00000040   Code   RO         3690    i.Timer_SetTarget   timer.o
    0x08008494   0x08008494   0x00000040   Code   RO         3691    i.Timer_Start       timer.o
    0x080084d4   0x080084d4   0x00000028   Code   RO         3692    i.Timer_StartAll    timer.o
    0x080084fc   0x080084fc   0x00000040   Code   RO         3693    i.Timer_Stop        timer.o
    0x0800853c   0x0800853c   0x00000028   Code   RO         3694    i.Timer_StopAll     timer.o
    0x08008564   0x08008564   0x0000002c   Code   RO         3695    i.Timer_ToFunction_ByID  timer.o
    0x08008590   0x08008590   0x00000004   Code   RO         4821    i.UsageFault_Handler  stm32f10x_it.o
    0x08008594   0x08008594   0x00000028   Code   RO         5200    i.__ARM_fpclassify  m_ws.l(fpclassify.o)
    0x080085bc   0x080085bc   0x0000000e   Code   RO         5027    i._is_digit         c_w.l(__printf_wp.o)
    0x080085ca   0x080085ca   0x00000002   PAD
    0x080085cc   0x080085cc   0x000000d8   Code   RO         4793    i.main              main.o
    0x080086a4   0x080086a4   0x0000002c   Code   RO         5244    locale$$code        c_w.l(lc_numeric_c.o)
    0x080086d0   0x080086d0   0x0000002c   Code   RO         5269    locale$$code        c_w.l(lc_ctype_c.o)
    0x080086fc   0x080086fc   0x00000150   Code   RO         4904    x$fpl$dadd          fz_ws.l(daddsub_clz.o)
    0x0800884c   0x0800884c   0x000002b0   Code   RO         4911    x$fpl$ddiv          fz_ws.l(ddiv.o)
    0x08008afc   0x08008afc   0x0000005a   Code   RO         4918    x$fpl$dfixu         fz_ws.l(dfixu.o)
    0x08008b56   0x08008b56   0x00000026   Code   RO         4922    x$fpl$dfltu         fz_ws.l(dflt_clz.o)
    0x08008b7c   0x08008b7c   0x00000154   Code   RO         4930    x$fpl$dmul          fz_ws.l(dmul.o)
    0x08008cd0   0x08008cd0   0x0000009c   Code   RO         5110    x$fpl$dnaninf       fz_ws.l(dnaninf.o)
    0x08008d6c   0x08008d6c   0x0000000c   Code   RO         5112    x$fpl$dretinf       fz_ws.l(dretinf.o)
    0x08008d78   0x08008d78   0x00000016   Code   RO         4905    x$fpl$drsb          fz_ws.l(daddsub_clz.o)
    0x08008d8e   0x08008d8e   0x00000002   PAD
    0x08008d90   0x08008d90   0x000001d4   Code   RO         4906    x$fpl$dsub          fz_ws.l(daddsub_clz.o)
    0x08008f64   0x08008f64   0x000000c4   Code   RO         4934    x$fpl$fadd          fz_ws.l(faddsub_clz.o)
    0x08009028   0x08009028   0x00000018   Code   RO         5116    x$fpl$fcmpinf       fz_ws.l(fcmpi.o)
    0x08009040   0x08009040   0x00000068   Code   RO         4940    x$fpl$feqf          fz_ws.l(feqf.o)
    0x080090a8   0x080090a8   0x0000003e   Code   RO         4942    x$fpl$ffixu         fz_ws.l(ffixu.o)
    0x080090e6   0x080090e6   0x00000002   PAD
    0x080090e8   0x080090e8   0x00000030   Code   RO         4947    x$fpl$fflt          fz_ws.l(fflt_clz.o)
    0x08009118   0x08009118   0x00000026   Code   RO         4946    x$fpl$ffltu         fz_ws.l(fflt_clz.o)
    0x0800913e   0x0800913e   0x00000002   PAD
    0x08009140   0x08009140   0x00000102   Code   RO         4954    x$fpl$fmul          fz_ws.l(fmul.o)
    0x08009242   0x08009242   0x0000008c   Code   RO         5118    x$fpl$fnaninf       fz_ws.l(fnaninf.o)
    0x080092ce   0x080092ce   0x0000000a   Code   RO         5120    x$fpl$fretinf       fz_ws.l(fretinf.o)
    0x080092d8   0x080092d8   0x000000ea   Code   RO         4936    x$fpl$fsub          fz_ws.l(faddsub_clz.o)
    0x080093c2   0x080093c2   0x00000004   Code   RO         5122    x$fpl$printf1       fz_ws.l(printf1.o)
    0x080093c6   0x080093c6   0x00000004   Code   RO         5124    x$fpl$printf2       fz_ws.l(printf2.o)
    0x080093ca   0x080093ca   0x00000000   Code   RO         5130    x$fpl$usenofp       fz_ws.l(usenofp.o)
    0x080093ca   0x080093ca   0x00001d98   Data   RO         3646    .constdata          oled_data.o
    0x0800b162   0x0800b162   0x00000002   PAD
    0x0800b164   0x0800b164   0x00000003   Data   RO         3798    .constdata          message.o
    0x0800b167   0x0800b167   0x00000120   Data   RO         4052    .constdata          gamemenu.o
    0x0800b287   0x0800b287   0x00000140   Data   RO         4110    .constdata          gamemenu_minesweeper.o
    0x0800b3c7   0x0800b3c7   0x00000139   Data   RO         4242    .constdata          gamemenu_snake.o
    0x0800b500   0x0800b500   0x00000227   Data   RO         4337    .constdata          gamemenu_tetris.o
    0x0800b727   0x0800b727   0x00000120   Data   RO         4443    .constdata          settingmenu.o
    0x0800b847   0x0800b847   0x00000120   Data   RO         4470    .constdata          textmenu.o
    0x0800b967   0x0800b967   0x00000120   Data   RO         4513    .constdata          textmenu_create.o
    0x0800ba87   0x0800ba87   0x00000120   Data   RO         4562    .constdata          textmenu_delete.o
    0x0800bba7   0x0800bba7   0x00000120   Data   RO         4603    .constdata          textmenu_read.o
    0x0800bcc7   0x0800bcc7   0x00000120   Data   RO         4641    .constdata          clockmenu.o
    0x0800bde7   0x0800bde7   0x00000120   Data   RO         4684    .constdata          clockmenu_alarm.o
    0x0800bf07   0x0800bf07   0x00000120   Data   RO         4729    .constdata          clockmenu_setting.o
    0x0800c027   0x0800c027   0x00000120   Data   RO         4765    .constdata          clockmenu_time.o
    0x0800c147   0x0800c147   0x00000001   PAD
    0x0800c148   0x0800c148   0x00000008   Data   RO         4986    .constdata          c_w.l(_printf_wctomb.o)
    0x0800c150   0x0800c150   0x00000028   Data   RO         5015    .constdata          c_w.l(_printf_hex_int_ll_ptr.o)
    0x0800c178   0x0800c178   0x00000011   Data   RO         5035    .constdata          c_w.l(__printf_flags_ss_wp.o)
    0x0800c189   0x0800c189   0x0000000c   Data   RO         5060    .constdata          c_w.l(_monlen.o)
    0x0800c195   0x0800c195   0x00000026   Data   RO         5183    .constdata          c_w.l(_printf_fp_hex.o)
    0x0800c1bb   0x0800c1bb   0x00000001   PAD
    0x0800c1bc   0x0800c1bc   0x00000094   Data   RO         5219    .constdata          c_w.l(bigflt0.o)
    0x0800c250   0x0800c250   0x00000007   Data   RO         4053    .conststring        gamemenu.o
    0x0800c257   0x0800c257   0x00000001   PAD
    0x0800c258   0x0800c258   0x00000007   Data   RO         4111    .conststring        gamemenu_minesweeper.o
    0x0800c25f   0x0800c25f   0x00000001   PAD
    0x0800c260   0x0800c260   0x0000000a   Data   RO         4243    .conststring        gamemenu_snake.o
    0x0800c26a   0x0800c26a   0x00000002   PAD
    0x0800c26c   0x0800c26c   0x00000010   Data   RO         4338    .conststring        gamemenu_tetris.o
    0x0800c27c   0x0800c27c   0x00000007   Data   RO         4444    .conststring        settingmenu.o
    0x0800c283   0x0800c283   0x00000001   PAD
    0x0800c284   0x0800c284   0x0000000a   Data   RO         4471    .conststring        textmenu.o
    0x0800c28e   0x0800c28e   0x00000002   PAD
    0x0800c290   0x0800c290   0x00000007   Data   RO         4514    .conststring        textmenu_create.o
    0x0800c297   0x0800c297   0x00000001   PAD
    0x0800c298   0x0800c298   0x00000007   Data   RO         4563    .conststring        textmenu_delete.o
    0x0800c29f   0x0800c29f   0x00000001   PAD
    0x0800c2a0   0x0800c2a0   0x00000007   Data   RO         4604    .conststring        textmenu_read.o
    0x0800c2a7   0x0800c2a7   0x00000001   PAD
    0x0800c2a8   0x0800c2a8   0x00000007   Data   RO         4642    .conststring        clockmenu.o
    0x0800c2af   0x0800c2af   0x00000001   PAD
    0x0800c2b0   0x0800c2b0   0x00000007   Data   RO         4685    .conststring        clockmenu_alarm.o
    0x0800c2b7   0x0800c2b7   0x00000001   PAD
    0x0800c2b8   0x0800c2b8   0x0000000d   Data   RO         4766    .conststring        clockmenu_time.o
    0x0800c2c5   0x0800c2c5   0x00000003   PAD
    0x0800c2c8   0x0800c2c8   0x00000020   Data   RO         5340    Region$$Table       anon$$obj.o
    0x0800c2e8   0x0800c2e8   0x0000001c   Data   RO         5243    locale$$data        c_w.l(lc_numeric_c.o)
    0x0800c304   0x0800c304   0x00000110   Data   RO         5268    locale$$data        c_w.l(lc_ctype_c.o)


    Execution Region RW_IRAM1 (Exec base: 0x20000000, Load base: 0x0800c414, Size: 0x00002098, Max: 0x00005000, ABSOLUTE)

    Exec Addr    Load Addr    Size         Type   Attr      Idx    E Section Name        Object

    0x20000000   0x0800c414   0x0000000c   Data   RW         3226    .data               myrtc.o
    0x2000000c   0x0800c420   0x00000002   Data   RW         3355    .data               key.o
    0x2000000e   0x0800c422   0x00000003   Data   RW         3661    .data               encoder.o
    0x20000011   0x0800c425   0x00000003   PAD
    0x20000014   0x0800c428   0x00000004   Data   RW         3933    .data               menu.o
    0x20000018   0x0800c42c   0x00000004   Data   RW         4054    .data               gamemenu.o
    0x2000001c   0x0800c430   0x00000005   Data   RW         4112    .data               gamemenu_minesweeper.o
    0x20000021   0x0800c435   0x00000003   PAD
    0x20000024   0x0800c438   0x00000005   Data   RW         4244    .data               gamemenu_snake.o
    0x20000029   0x0800c43d   0x00000003   PAD
    0x2000002c   0x0800c440   0x00000013   Data   RW         4339    .data               gamemenu_tetris.o
    0x2000003f   0x0800c453   0x00000001   PAD
    0x20000040   0x0800c454   0x00000004   Data   RW         4445    .data               settingmenu.o
    0x20000044   0x0800c458   0x00000004   Data   RW         4472    .data               textmenu.o
    0x20000048   0x0800c45c   0x00000004   Data   RW         4515    .data               textmenu_create.o
    0x2000004c   0x0800c460   0x00000004   Data   RW         4564    .data               textmenu_delete.o
    0x20000050   0x0800c464   0x00000004   Data   RW         4605    .data               textmenu_read.o
    0x20000054   0x0800c468   0x00000004   Data   RW         4643    .data               clockmenu.o
    0x20000058   0x0800c46c   0x00000005   Data   RW         4686    .data               clockmenu_alarm.o
    0x2000005d   0x0800c471   0x00000003   PAD
    0x20000060   0x0800c474   0x00000005   Data   RW         4731    .data               clockmenu_setting.o
    0x20000065   0x0800c479   0x00000003   PAD
    0x20000068   0x0800c47c   0x00000004   Data   RW         4767    .data               clockmenu_time.o
    0x2000006c        -       0x00000400   Zero   RW         3325    .bss                store.o
    0x2000046c        -       0x00000400   Zero   RW         3426    .bss                oled.o
    0x2000086c        -       0x000000c4   Zero   RW         3696    .bss                timer.o
    0x20000930        -       0x00000036   Zero   RW         3797    .bss                message.o
    0x20000966   0x0800c480   0x00000002   PAD
    0x20000968        -       0x0000001c   Zero   RW         4051    .bss                gamemenu.o
    0x20000984        -       0x00000122   Zero   RW         4109    .bss                gamemenu_minesweeper.o
    0x20000aa6   0x0800c480   0x00000002   PAD
    0x20000aa8        -       0x00000d10   Zero   RW         4241    .bss                gamemenu_snake.o
    0x200017b8        -       0x00000050   Zero   RW         4336    .bss                gamemenu_tetris.o
    0x20001808        -       0x0000001c   Zero   RW         4442    .bss                settingmenu.o
    0x20001824        -       0x0000001c   Zero   RW         4469    .bss                textmenu.o
    0x20001840        -       0x0000001c   Zero   RW         4512    .bss                textmenu_create.o
    0x2000185c        -       0x0000001c   Zero   RW         4561    .bss                textmenu_delete.o
    0x20001878        -       0x0000001c   Zero   RW         4602    .bss                textmenu_read.o
    0x20001894        -       0x0000001c   Zero   RW         4640    .bss                clockmenu.o
    0x200018b0        -       0x0000002a   Zero   RW         4683    .bss                clockmenu_alarm.o
    0x200018da   0x0800c480   0x00000002   PAD
    0x200018dc        -       0x0000002a   Zero   RW         4728    .bss                clockmenu_setting.o
    0x20001906   0x0800c480   0x00000002   PAD
    0x20001908        -       0x0000001c   Zero   RW         4764    .bss                clockmenu_time.o
    0x20001924        -       0x000000e4   Zero   RW         4882    .bss                c_w.l(rand.o)
    0x20001a08        -       0x0000002c   Zero   RW         4894    .bss                c_w.l(localtime.o)
    0x20001a34        -       0x00000060   Zero   RW         5205    .bss                c_w.l(libspace.o)
    0x20001a94   0x0800c480   0x00000004   PAD
    0x20001a98        -       0x00000200   Zero   RW            2    HEAP                startup_stm32f10x_md.o
    0x20001c98        -       0x00000400   Zero   RW            1    STACK               startup_stm32f10x_md.o


==============================================================================

Image component sizes


      Code (inc. data)   RO Data    RW Data    ZI Data      Debug   Object Name

        94         30        295          4         28       1655   clockmenu.o
      2376        266        295          5         42       5128   clockmenu_alarm.o
      1752        190        288          5         42       3907   clockmenu_setting.o
       400         74        301          4         28       2227   clockmenu_time.o
        70          0          0          0          0        890   delay.o
       424         34          0          3          0       1738   encoder.o
        94         30        295          4         28       1642   gamemenu.o
      2712        382        327          5        290      12872   gamemenu_minesweeper.o
      2844        274        323          5       3344       8592   gamemenu_snake.o
      3412        424        567         19         80      13115   gamemenu_tetris.o
       802         38          0          0          0       4286   gui.o
       480         26          0          2          0       2598   key.o
       272         16          0          0          0       1003   main.o
       370         56          0          4          0       7763   menu.o
       466         30          3          0         54       3346   message.o
       132         22          0          0          0     204671   misc.o
        24          0          0          0          0       1370   msg.o
        50          0          0          0          0       1513   myflash.o
       416          8          0         12          0       4465   myrtc.o
      2418         74          0          0       1024      16425   oled.o
         0          0       7576          0          0       1248   oled_data.o
        46         18        295          4         28       1613   settingmenu.o
        64         26        236          0       1536        808   startup_stm32f10x_md.o
         0          0          0          0          0       1640   stm32f10x_adc.o
        56         10          0          0          0       2031   stm32f10x_bkp.o
       274         30          0          0          0       9402   stm32f10x_flash.o
       306          0          0          0          0      11248   stm32f10x_gpio.o
        26          0          0          0          0       3578   stm32f10x_it.o
        68         30          0          0          0       2202   stm32f10x_iwdg.o
        12          6          0          0          0        458   stm32f10x_pwr.o
       224         38          0          0          0       3445   stm32f10x_rcc.o
       288         52          0          0          0       5123   stm32f10x_rtc.o
      1194        150          0          0          0      32143   stm32f10x_tim.o
       152         18          0          0       1024       1471   store.o
       328         28          0          0          0      34901   system_stm32f10x.o
        94         30        298          4         28       1627   textmenu.o
      1344        182        295          4         28       5407   textmenu_create.o
       676        114        295          4         28       3623   textmenu_delete.o
       748        102        295          4         28       3635   textmenu_read.o
      1056         52          0          0        196       6625   timer.o

    ----------------------------------------------------------------------
     26596       2860      12034        108       7864     431434   Object Totals
         0          0         32          0          0          0   (incl. Generated)
        32          0         18         16          8          0   (incl. Padding)

    ----------------------------------------------------------------------

      Code (inc. data)   RO Data    RW Data    ZI Data      Debug   Library Member Name

         8          0          0          0          0         68   __main.o
       392          4         17          0          0         92   __printf_flags_ss_wp.o
        14          0          0          0          0         68   __printf_wp.o
         0          0          0          0          0          0   __rtentry.o
        12          0          0          0          0          0   __rtentry2.o
         6          0          0          0          0          0   __rtentry4.o
        52          8          0          0          0          0   __scatter.o
        26          0          0          0          0          0   __scatter_copy.o
        28          0          0          0          0          0   __scatter_zi.o
         0          0         12          0          0          0   _monlen.o
         6          0          0          0          0          0   _printf_a.o
         6          0          0          0          0          0   _printf_c.o
        44          0          0          0          0        108   _printf_char.o
        48          6          0          0          0         96   _printf_char_common.o
        40          0          0          0          0         68   _printf_charcount.o
         6          0          0          0          0          0   _printf_d.o
       120         16          0          0          0         92   _printf_dec.o
         6          0          0          0          0          0   _printf_e.o
         6          0          0          0          0          0   _printf_f.o
      1054          0          0          0          0        216   _printf_fp_dec.o
       764          8         38          0          0        100   _printf_fp_hex.o
       128         16          0          0          0         84   _printf_fp_infnan.o
         6          0          0          0          0          0   _printf_g.o
       148          4         40          0          0        160   _printf_hex_int_ll_ptr.o
         6          0          0          0          0          0   _printf_i.o
       178          0          0          0          0         88   _printf_intcommon.o
        10          0          0          0          0          0   _printf_l.o
         6          0          0          0          0          0   _printf_lc.o
        10          0          0          0          0          0   _printf_ll.o
         6          0          0          0          0          0   _printf_lld.o
         6          0          0          0          0          0   _printf_lli.o
         6          0          0          0          0          0   _printf_llo.o
         6          0          0          0          0          0   _printf_llu.o
         6          0          0          0          0          0   _printf_llx.o
       124         16          0          0          0         92   _printf_longlong_dec.o
         6          0          0          0          0          0   _printf_ls.o
         6          0          0          0          0          0   _printf_n.o
         6          0          0          0          0          0   _printf_o.o
       112         10          0          0          0        124   _printf_oct_int_ll.o
         6          0          0          0          0          0   _printf_p.o
        78          0          0          0          0        108   _printf_pad.o
         0          0          0          0          0          0   _printf_percent.o
         4          0          0          0          0          0   _printf_percent_end.o
         6          0          0          0          0          0   _printf_s.o
        82          0          0          0          0         80   _printf_str.o
        36          0          0          0          0         84   _printf_truncate.o
         6          0          0          0          0          0   _printf_u.o
        44          0          0          0          0        108   _printf_wchar.o
       188          6          8          0          0         92   _printf_wctomb.o
         6          0          0          0          0          0   _printf_x.o
        10          0          0          0          0         68   _sputc.o
        64          0          0          0          0         92   _wcrtomb.o
       228          4        148          0          0         96   bigflt0.o
      1936        128          0          0          0        672   btod.o
        18          0          0          0          0         80   exit.o
         6          0          0          0          0        152   heapauxi.o
         0          0          0          0          0          0   indicate_semi.o
        44         10        272          0          0         76   lc_ctype_c.o
        44         10         28          0          0         76   lc_numeric_c.o
         2          0          0          0          0          0   libinit.o
        34          0          0          0          0          0   libinit2.o
         2          0          0          0          0          0   libshutdown.o
         2          0          0          0          0          0   libshutdown2.o
         8          4          0          0         96         68   libspace.o
       138          0          0          0          0         80   lludiv10.o
        12          6          0          0         44         68   localtime.o
       184          6          0          0          0         80   localtime_internal.o
       428         10          0          0          0        116   mktime.o
       112         18          0          0        228        160   rand.o
        16          4          0          0          0         76   rt_ctype_table.o
         8          4          0          0          0         68   rt_locale_intlibspace.o
        78          0          0          0          0         80   rt_memclr_w.o
       100          0          0          0          0         80   rt_memcpy_w.o
         2          0          0          0          0          0   rtexit.o
        10          0          0          0          0          0   rtexit2.o
       128          0          0          0          0         68   strcmpv7m.o
        62          0          0          0          0         76   strlen.o
        12          4          0          0          0         68   sys_exit.o
        74          0          0          0          0         80   sys_stackheap_outer.o
         2          0          0          0          0         68   use_no_semi.o
        36          4          0          0          0         76   vsprintf.o
       826         16          0          0          0        348   daddsub_clz.o
       688        140          0          0          0        208   ddiv.o
        90          4          0          0          0         92   dfixu.o
        38          0          0          0          0         68   dflt_clz.o
       340         12          0          0          0        104   dmul.o
       156          4          0          0          0         92   dnaninf.o
        12          0          0          0          0         68   dretinf.o
       430          8          0          0          0        168   faddsub_clz.o
        24          0          0          0          0         68   fcmpi.o
       104          4          0          0          0         84   feqf.o
        62          4          0          0          0         84   ffixu.o
        86          0          0          0          0        136   fflt_clz.o
       258          4          0          0          0         84   fmul.o
       140          4          0          0          0         84   fnaninf.o
        10          0          0          0          0         68   fretinf.o
         4          0          0          0          0         68   printf1.o
         4          0          0          0          0         68   printf2.o
         0          0          0          0          0          0   usenofp.o
        40          0          0          0          0         68   fpclassify.o

    ----------------------------------------------------------------------
     11002        506        564          0        372       6512   Library Totals
        20          0          1          0          4          0   (incl. Padding)

    ----------------------------------------------------------------------

      Code (inc. data)   RO Data    RW Data    ZI Data      Debug   Library Name

      7670        306        563          0        368       4552   c_w.l
      3272        200          0          0          0       1892   fz_ws.l
        40          0          0          0          0         68   m_ws.l

    ----------------------------------------------------------------------
     11002        506        564          0        372       6512   Library Totals

    ----------------------------------------------------------------------

==============================================================================


      Code (inc. data)   RO Data    RW Data    ZI Data      Debug   

     37598       3366      12598        108       8236     421614   Grand Totals
     37598       3366      12598        108       8236     421614   ELF Image Totals
     37598       3366      12598        108          0          0   ROM Totals

==============================================================================

    Total RO  Size (Code + RO Data)                50196 (  49.02kB)
    Total RW  Size (RW Data + ZI Data)              8344 (   8.15kB)
    Total ROM Size (Code + RO Data + RW Data)      50304 (  49.13kB)

==============================================================================

